   1              	 .cpu cortex-m0
   2              	 .fpu softvfp
   3              	 .eabi_attribute 20,1
   4              	 .eabi_attribute 21,1
   5              	 .eabi_attribute 23,3
   6              	 .eabi_attribute 24,1
   7              	 .eabi_attribute 25,1
   8              	 .eabi_attribute 26,1
   9              	 .eabi_attribute 30,6
  10              	 .eabi_attribute 34,0
  11              	 .eabi_attribute 18,4
  12              	 .code 16
  13              	 .file "adc_measurement.c"
  14              	 .text
  15              	.Ltext0:
  16              	 .cfi_sections .debug_frame
  17              	 .section .text.__NVIC_EnableIRQ,"ax",%progbits
  18              	 .align 2
  19              	 .code 16
  20              	 .thumb_func
  22              	__NVIC_EnableIRQ:
  23              	.LFB25:
  24              	 .file 1 "N:/EECS 473/Myoelectric/myoelectric/Libraries/CMSIS/Include/core_cm0.h"
   1:N:/EECS 473/Myoelectric/myoelectric/Libraries/CMSIS/Include\core_cm0.h **** /**************************************************************************//**
   2:N:/EECS 473/Myoelectric/myoelectric/Libraries/CMSIS/Include\core_cm0.h ****  * @file     core_cm0.h
   3:N:/EECS 473/Myoelectric/myoelectric/Libraries/CMSIS/Include\core_cm0.h ****  * @brief    CMSIS Cortex-M0 Core Peripheral Access Layer Header File
   4:N:/EECS 473/Myoelectric/myoelectric/Libraries/CMSIS/Include\core_cm0.h ****  * @version  V5.0.5
   5:N:/EECS 473/Myoelectric/myoelectric/Libraries/CMSIS/Include\core_cm0.h ****  * @date     28. May 2018
   6:N:/EECS 473/Myoelectric/myoelectric/Libraries/CMSIS/Include\core_cm0.h ****  ******************************************************************************/
   7:N:/EECS 473/Myoelectric/myoelectric/Libraries/CMSIS/Include\core_cm0.h **** /*
   8:N:/EECS 473/Myoelectric/myoelectric/Libraries/CMSIS/Include\core_cm0.h ****  * Copyright (c) 2009-2018 Arm Limited. All rights reserved.
   9:N:/EECS 473/Myoelectric/myoelectric/Libraries/CMSIS/Include\core_cm0.h ****  *
  10:N:/EECS 473/Myoelectric/myoelectric/Libraries/CMSIS/Include\core_cm0.h ****  * SPDX-License-Identifier: Apache-2.0
  11:N:/EECS 473/Myoelectric/myoelectric/Libraries/CMSIS/Include\core_cm0.h ****  *
  12:N:/EECS 473/Myoelectric/myoelectric/Libraries/CMSIS/Include\core_cm0.h ****  * Licensed under the Apache License, Version 2.0 (the License); you may
  13:N:/EECS 473/Myoelectric/myoelectric/Libraries/CMSIS/Include\core_cm0.h ****  * not use this file except in compliance with the License.
  14:N:/EECS 473/Myoelectric/myoelectric/Libraries/CMSIS/Include\core_cm0.h ****  * You may obtain a copy of the License at
  15:N:/EECS 473/Myoelectric/myoelectric/Libraries/CMSIS/Include\core_cm0.h ****  *
  16:N:/EECS 473/Myoelectric/myoelectric/Libraries/CMSIS/Include\core_cm0.h ****  * www.apache.org/licenses/LICENSE-2.0
  17:N:/EECS 473/Myoelectric/myoelectric/Libraries/CMSIS/Include\core_cm0.h ****  *
  18:N:/EECS 473/Myoelectric/myoelectric/Libraries/CMSIS/Include\core_cm0.h ****  * Unless required by applicable law or agreed to in writing, software
  19:N:/EECS 473/Myoelectric/myoelectric/Libraries/CMSIS/Include\core_cm0.h ****  * distributed under the License is distributed on an AS IS BASIS, WITHOUT
  20:N:/EECS 473/Myoelectric/myoelectric/Libraries/CMSIS/Include\core_cm0.h ****  * WARRANTIES OR CONDITIONS OF ANY KIND, either express or implied.
  21:N:/EECS 473/Myoelectric/myoelectric/Libraries/CMSIS/Include\core_cm0.h ****  * See the License for the specific language governing permissions and
  22:N:/EECS 473/Myoelectric/myoelectric/Libraries/CMSIS/Include\core_cm0.h ****  * limitations under the License.
  23:N:/EECS 473/Myoelectric/myoelectric/Libraries/CMSIS/Include\core_cm0.h ****  */
  24:N:/EECS 473/Myoelectric/myoelectric/Libraries/CMSIS/Include\core_cm0.h **** 
  25:N:/EECS 473/Myoelectric/myoelectric/Libraries/CMSIS/Include\core_cm0.h **** #if   defined ( __ICCARM__ )
  26:N:/EECS 473/Myoelectric/myoelectric/Libraries/CMSIS/Include\core_cm0.h ****   #pragma system_include         /* treat file as system include file for MISRA check */
  27:N:/EECS 473/Myoelectric/myoelectric/Libraries/CMSIS/Include\core_cm0.h **** #elif defined (__clang__)
  28:N:/EECS 473/Myoelectric/myoelectric/Libraries/CMSIS/Include\core_cm0.h ****   #pragma clang system_header   /* treat file as system include file */
  29:N:/EECS 473/Myoelectric/myoelectric/Libraries/CMSIS/Include\core_cm0.h **** #endif
  30:N:/EECS 473/Myoelectric/myoelectric/Libraries/CMSIS/Include\core_cm0.h **** 
  31:N:/EECS 473/Myoelectric/myoelectric/Libraries/CMSIS/Include\core_cm0.h **** #ifndef __CORE_CM0_H_GENERIC
  32:N:/EECS 473/Myoelectric/myoelectric/Libraries/CMSIS/Include\core_cm0.h **** #define __CORE_CM0_H_GENERIC
  33:N:/EECS 473/Myoelectric/myoelectric/Libraries/CMSIS/Include\core_cm0.h **** 
  34:N:/EECS 473/Myoelectric/myoelectric/Libraries/CMSIS/Include\core_cm0.h **** #include <stdint.h>
  35:N:/EECS 473/Myoelectric/myoelectric/Libraries/CMSIS/Include\core_cm0.h **** 
  36:N:/EECS 473/Myoelectric/myoelectric/Libraries/CMSIS/Include\core_cm0.h **** #ifdef __cplusplus
  37:N:/EECS 473/Myoelectric/myoelectric/Libraries/CMSIS/Include\core_cm0.h ****  extern "C" {
  38:N:/EECS 473/Myoelectric/myoelectric/Libraries/CMSIS/Include\core_cm0.h **** #endif
  39:N:/EECS 473/Myoelectric/myoelectric/Libraries/CMSIS/Include\core_cm0.h **** 
  40:N:/EECS 473/Myoelectric/myoelectric/Libraries/CMSIS/Include\core_cm0.h **** /**
  41:N:/EECS 473/Myoelectric/myoelectric/Libraries/CMSIS/Include\core_cm0.h ****   \page CMSIS_MISRA_Exceptions  MISRA-C:2004 Compliance Exceptions
  42:N:/EECS 473/Myoelectric/myoelectric/Libraries/CMSIS/Include\core_cm0.h ****   CMSIS violates the following MISRA-C:2004 rules:
  43:N:/EECS 473/Myoelectric/myoelectric/Libraries/CMSIS/Include\core_cm0.h **** 
  44:N:/EECS 473/Myoelectric/myoelectric/Libraries/CMSIS/Include\core_cm0.h ****    \li Required Rule 8.5, object/function definition in header file.<br>
  45:N:/EECS 473/Myoelectric/myoelectric/Libraries/CMSIS/Include\core_cm0.h ****      Function definitions in header files are used to allow 'inlining'.
  46:N:/EECS 473/Myoelectric/myoelectric/Libraries/CMSIS/Include\core_cm0.h **** 
  47:N:/EECS 473/Myoelectric/myoelectric/Libraries/CMSIS/Include\core_cm0.h ****    \li Required Rule 18.4, declaration of union type or object of union type: '{...}'.<br>
  48:N:/EECS 473/Myoelectric/myoelectric/Libraries/CMSIS/Include\core_cm0.h ****      Unions are used for effective representation of core registers.
  49:N:/EECS 473/Myoelectric/myoelectric/Libraries/CMSIS/Include\core_cm0.h **** 
  50:N:/EECS 473/Myoelectric/myoelectric/Libraries/CMSIS/Include\core_cm0.h ****    \li Advisory Rule 19.7, Function-like macro defined.<br>
  51:N:/EECS 473/Myoelectric/myoelectric/Libraries/CMSIS/Include\core_cm0.h ****      Function-like macros are used to allow more efficient code.
  52:N:/EECS 473/Myoelectric/myoelectric/Libraries/CMSIS/Include\core_cm0.h ****  */
  53:N:/EECS 473/Myoelectric/myoelectric/Libraries/CMSIS/Include\core_cm0.h **** 
  54:N:/EECS 473/Myoelectric/myoelectric/Libraries/CMSIS/Include\core_cm0.h **** 
  55:N:/EECS 473/Myoelectric/myoelectric/Libraries/CMSIS/Include\core_cm0.h **** /*******************************************************************************
  56:N:/EECS 473/Myoelectric/myoelectric/Libraries/CMSIS/Include\core_cm0.h ****  *                 CMSIS definitions
  57:N:/EECS 473/Myoelectric/myoelectric/Libraries/CMSIS/Include\core_cm0.h ****  ******************************************************************************/
  58:N:/EECS 473/Myoelectric/myoelectric/Libraries/CMSIS/Include\core_cm0.h **** /**
  59:N:/EECS 473/Myoelectric/myoelectric/Libraries/CMSIS/Include\core_cm0.h ****   \ingroup Cortex_M0
  60:N:/EECS 473/Myoelectric/myoelectric/Libraries/CMSIS/Include\core_cm0.h ****   @{
  61:N:/EECS 473/Myoelectric/myoelectric/Libraries/CMSIS/Include\core_cm0.h ****  */
  62:N:/EECS 473/Myoelectric/myoelectric/Libraries/CMSIS/Include\core_cm0.h **** 
  63:N:/EECS 473/Myoelectric/myoelectric/Libraries/CMSIS/Include\core_cm0.h **** #include "cmsis_version.h"
  64:N:/EECS 473/Myoelectric/myoelectric/Libraries/CMSIS/Include\core_cm0.h ****  
  65:N:/EECS 473/Myoelectric/myoelectric/Libraries/CMSIS/Include\core_cm0.h **** /*  CMSIS CM0 definitions */
  66:N:/EECS 473/Myoelectric/myoelectric/Libraries/CMSIS/Include\core_cm0.h **** #define __CM0_CMSIS_VERSION_MAIN  (__CM_CMSIS_VERSION_MAIN)              /*!< \deprecated [31:16] C
  67:N:/EECS 473/Myoelectric/myoelectric/Libraries/CMSIS/Include\core_cm0.h **** #define __CM0_CMSIS_VERSION_SUB   (__CM_CMSIS_VERSION_SUB)               /*!< \deprecated [15:0]  C
  68:N:/EECS 473/Myoelectric/myoelectric/Libraries/CMSIS/Include\core_cm0.h **** #define __CM0_CMSIS_VERSION       ((__CM0_CMSIS_VERSION_MAIN << 16U) | \
  69:N:/EECS 473/Myoelectric/myoelectric/Libraries/CMSIS/Include\core_cm0.h ****                                     __CM0_CMSIS_VERSION_SUB           )  /*!< \deprecated CMSIS HAL
  70:N:/EECS 473/Myoelectric/myoelectric/Libraries/CMSIS/Include\core_cm0.h **** 
  71:N:/EECS 473/Myoelectric/myoelectric/Libraries/CMSIS/Include\core_cm0.h **** #define __CORTEX_M                (0U)                                   /*!< Cortex-M Core */
  72:N:/EECS 473/Myoelectric/myoelectric/Libraries/CMSIS/Include\core_cm0.h **** 
  73:N:/EECS 473/Myoelectric/myoelectric/Libraries/CMSIS/Include\core_cm0.h **** /** __FPU_USED indicates whether an FPU is used or not.
  74:N:/EECS 473/Myoelectric/myoelectric/Libraries/CMSIS/Include\core_cm0.h ****     This core does not support an FPU at all
  75:N:/EECS 473/Myoelectric/myoelectric/Libraries/CMSIS/Include\core_cm0.h **** */
  76:N:/EECS 473/Myoelectric/myoelectric/Libraries/CMSIS/Include\core_cm0.h **** #define __FPU_USED       0U
  77:N:/EECS 473/Myoelectric/myoelectric/Libraries/CMSIS/Include\core_cm0.h **** 
  78:N:/EECS 473/Myoelectric/myoelectric/Libraries/CMSIS/Include\core_cm0.h **** #if defined ( __CC_ARM )
  79:N:/EECS 473/Myoelectric/myoelectric/Libraries/CMSIS/Include\core_cm0.h ****   #if defined __TARGET_FPU_VFP
  80:N:/EECS 473/Myoelectric/myoelectric/Libraries/CMSIS/Include\core_cm0.h ****     #error "Compiler generates FPU instructions for a device without an FPU (check __FPU_PRESENT)"
  81:N:/EECS 473/Myoelectric/myoelectric/Libraries/CMSIS/Include\core_cm0.h ****   #endif
  82:N:/EECS 473/Myoelectric/myoelectric/Libraries/CMSIS/Include\core_cm0.h **** 
  83:N:/EECS 473/Myoelectric/myoelectric/Libraries/CMSIS/Include\core_cm0.h **** #elif defined (__ARMCC_VERSION) && (__ARMCC_VERSION >= 6010050)
  84:N:/EECS 473/Myoelectric/myoelectric/Libraries/CMSIS/Include\core_cm0.h ****   #if defined __ARM_PCS_VFP
  85:N:/EECS 473/Myoelectric/myoelectric/Libraries/CMSIS/Include\core_cm0.h ****     #error "Compiler generates FPU instructions for a device without an FPU (check __FPU_PRESENT)"
  86:N:/EECS 473/Myoelectric/myoelectric/Libraries/CMSIS/Include\core_cm0.h ****   #endif
  87:N:/EECS 473/Myoelectric/myoelectric/Libraries/CMSIS/Include\core_cm0.h **** 
  88:N:/EECS 473/Myoelectric/myoelectric/Libraries/CMSIS/Include\core_cm0.h **** #elif defined ( __GNUC__ )
  89:N:/EECS 473/Myoelectric/myoelectric/Libraries/CMSIS/Include\core_cm0.h ****   #if defined (__VFP_FP__) && !defined(__SOFTFP__)
  90:N:/EECS 473/Myoelectric/myoelectric/Libraries/CMSIS/Include\core_cm0.h ****     #error "Compiler generates FPU instructions for a device without an FPU (check __FPU_PRESENT)"
  91:N:/EECS 473/Myoelectric/myoelectric/Libraries/CMSIS/Include\core_cm0.h ****   #endif
  92:N:/EECS 473/Myoelectric/myoelectric/Libraries/CMSIS/Include\core_cm0.h **** 
  93:N:/EECS 473/Myoelectric/myoelectric/Libraries/CMSIS/Include\core_cm0.h **** #elif defined ( __ICCARM__ )
  94:N:/EECS 473/Myoelectric/myoelectric/Libraries/CMSIS/Include\core_cm0.h ****   #if defined __ARMVFP__
  95:N:/EECS 473/Myoelectric/myoelectric/Libraries/CMSIS/Include\core_cm0.h ****     #error "Compiler generates FPU instructions for a device without an FPU (check __FPU_PRESENT)"
  96:N:/EECS 473/Myoelectric/myoelectric/Libraries/CMSIS/Include\core_cm0.h ****   #endif
  97:N:/EECS 473/Myoelectric/myoelectric/Libraries/CMSIS/Include\core_cm0.h **** 
  98:N:/EECS 473/Myoelectric/myoelectric/Libraries/CMSIS/Include\core_cm0.h **** #elif defined ( __TI_ARM__ )
  99:N:/EECS 473/Myoelectric/myoelectric/Libraries/CMSIS/Include\core_cm0.h ****   #if defined __TI_VFP_SUPPORT__
 100:N:/EECS 473/Myoelectric/myoelectric/Libraries/CMSIS/Include\core_cm0.h ****     #error "Compiler generates FPU instructions for a device without an FPU (check __FPU_PRESENT)"
 101:N:/EECS 473/Myoelectric/myoelectric/Libraries/CMSIS/Include\core_cm0.h ****   #endif
 102:N:/EECS 473/Myoelectric/myoelectric/Libraries/CMSIS/Include\core_cm0.h **** 
 103:N:/EECS 473/Myoelectric/myoelectric/Libraries/CMSIS/Include\core_cm0.h **** #elif defined ( __TASKING__ )
 104:N:/EECS 473/Myoelectric/myoelectric/Libraries/CMSIS/Include\core_cm0.h ****   #if defined __FPU_VFP__
 105:N:/EECS 473/Myoelectric/myoelectric/Libraries/CMSIS/Include\core_cm0.h ****     #error "Compiler generates FPU instructions for a device without an FPU (check __FPU_PRESENT)"
 106:N:/EECS 473/Myoelectric/myoelectric/Libraries/CMSIS/Include\core_cm0.h ****   #endif
 107:N:/EECS 473/Myoelectric/myoelectric/Libraries/CMSIS/Include\core_cm0.h **** 
 108:N:/EECS 473/Myoelectric/myoelectric/Libraries/CMSIS/Include\core_cm0.h **** #elif defined ( __CSMC__ )
 109:N:/EECS 473/Myoelectric/myoelectric/Libraries/CMSIS/Include\core_cm0.h ****   #if ( __CSMC__ & 0x400U)
 110:N:/EECS 473/Myoelectric/myoelectric/Libraries/CMSIS/Include\core_cm0.h ****     #error "Compiler generates FPU instructions for a device without an FPU (check __FPU_PRESENT)"
 111:N:/EECS 473/Myoelectric/myoelectric/Libraries/CMSIS/Include\core_cm0.h ****   #endif
 112:N:/EECS 473/Myoelectric/myoelectric/Libraries/CMSIS/Include\core_cm0.h **** 
 113:N:/EECS 473/Myoelectric/myoelectric/Libraries/CMSIS/Include\core_cm0.h **** #endif
 114:N:/EECS 473/Myoelectric/myoelectric/Libraries/CMSIS/Include\core_cm0.h **** 
 115:N:/EECS 473/Myoelectric/myoelectric/Libraries/CMSIS/Include\core_cm0.h **** #include "cmsis_compiler.h"               /* CMSIS compiler specific defines */
 116:N:/EECS 473/Myoelectric/myoelectric/Libraries/CMSIS/Include\core_cm0.h **** 
 117:N:/EECS 473/Myoelectric/myoelectric/Libraries/CMSIS/Include\core_cm0.h **** 
 118:N:/EECS 473/Myoelectric/myoelectric/Libraries/CMSIS/Include\core_cm0.h **** #ifdef __cplusplus
 119:N:/EECS 473/Myoelectric/myoelectric/Libraries/CMSIS/Include\core_cm0.h **** }
 120:N:/EECS 473/Myoelectric/myoelectric/Libraries/CMSIS/Include\core_cm0.h **** #endif
 121:N:/EECS 473/Myoelectric/myoelectric/Libraries/CMSIS/Include\core_cm0.h **** 
 122:N:/EECS 473/Myoelectric/myoelectric/Libraries/CMSIS/Include\core_cm0.h **** #endif /* __CORE_CM0_H_GENERIC */
 123:N:/EECS 473/Myoelectric/myoelectric/Libraries/CMSIS/Include\core_cm0.h **** 
 124:N:/EECS 473/Myoelectric/myoelectric/Libraries/CMSIS/Include\core_cm0.h **** #ifndef __CMSIS_GENERIC
 125:N:/EECS 473/Myoelectric/myoelectric/Libraries/CMSIS/Include\core_cm0.h **** 
 126:N:/EECS 473/Myoelectric/myoelectric/Libraries/CMSIS/Include\core_cm0.h **** #ifndef __CORE_CM0_H_DEPENDANT
 127:N:/EECS 473/Myoelectric/myoelectric/Libraries/CMSIS/Include\core_cm0.h **** #define __CORE_CM0_H_DEPENDANT
 128:N:/EECS 473/Myoelectric/myoelectric/Libraries/CMSIS/Include\core_cm0.h **** 
 129:N:/EECS 473/Myoelectric/myoelectric/Libraries/CMSIS/Include\core_cm0.h **** #ifdef __cplusplus
 130:N:/EECS 473/Myoelectric/myoelectric/Libraries/CMSIS/Include\core_cm0.h ****  extern "C" {
 131:N:/EECS 473/Myoelectric/myoelectric/Libraries/CMSIS/Include\core_cm0.h **** #endif
 132:N:/EECS 473/Myoelectric/myoelectric/Libraries/CMSIS/Include\core_cm0.h **** 
 133:N:/EECS 473/Myoelectric/myoelectric/Libraries/CMSIS/Include\core_cm0.h **** /* check device defines and use defaults */
 134:N:/EECS 473/Myoelectric/myoelectric/Libraries/CMSIS/Include\core_cm0.h **** #if defined __CHECK_DEVICE_DEFINES
 135:N:/EECS 473/Myoelectric/myoelectric/Libraries/CMSIS/Include\core_cm0.h ****   #ifndef __CM0_REV
 136:N:/EECS 473/Myoelectric/myoelectric/Libraries/CMSIS/Include\core_cm0.h ****     #define __CM0_REV               0x0000U
 137:N:/EECS 473/Myoelectric/myoelectric/Libraries/CMSIS/Include\core_cm0.h ****     #warning "__CM0_REV not defined in device header file; using default!"
 138:N:/EECS 473/Myoelectric/myoelectric/Libraries/CMSIS/Include\core_cm0.h ****   #endif
 139:N:/EECS 473/Myoelectric/myoelectric/Libraries/CMSIS/Include\core_cm0.h **** 
 140:N:/EECS 473/Myoelectric/myoelectric/Libraries/CMSIS/Include\core_cm0.h ****   #ifndef __NVIC_PRIO_BITS
 141:N:/EECS 473/Myoelectric/myoelectric/Libraries/CMSIS/Include\core_cm0.h ****     #define __NVIC_PRIO_BITS          2U
 142:N:/EECS 473/Myoelectric/myoelectric/Libraries/CMSIS/Include\core_cm0.h ****     #warning "__NVIC_PRIO_BITS not defined in device header file; using default!"
 143:N:/EECS 473/Myoelectric/myoelectric/Libraries/CMSIS/Include\core_cm0.h ****   #endif
 144:N:/EECS 473/Myoelectric/myoelectric/Libraries/CMSIS/Include\core_cm0.h **** 
 145:N:/EECS 473/Myoelectric/myoelectric/Libraries/CMSIS/Include\core_cm0.h ****   #ifndef __Vendor_SysTickConfig
 146:N:/EECS 473/Myoelectric/myoelectric/Libraries/CMSIS/Include\core_cm0.h ****     #define __Vendor_SysTickConfig    0U
 147:N:/EECS 473/Myoelectric/myoelectric/Libraries/CMSIS/Include\core_cm0.h ****     #warning "__Vendor_SysTickConfig not defined in device header file; using default!"
 148:N:/EECS 473/Myoelectric/myoelectric/Libraries/CMSIS/Include\core_cm0.h ****   #endif
 149:N:/EECS 473/Myoelectric/myoelectric/Libraries/CMSIS/Include\core_cm0.h **** #endif
 150:N:/EECS 473/Myoelectric/myoelectric/Libraries/CMSIS/Include\core_cm0.h **** 
 151:N:/EECS 473/Myoelectric/myoelectric/Libraries/CMSIS/Include\core_cm0.h **** /* IO definitions (access restrictions to peripheral registers) */
 152:N:/EECS 473/Myoelectric/myoelectric/Libraries/CMSIS/Include\core_cm0.h **** /**
 153:N:/EECS 473/Myoelectric/myoelectric/Libraries/CMSIS/Include\core_cm0.h ****     \defgroup CMSIS_glob_defs CMSIS Global Defines
 154:N:/EECS 473/Myoelectric/myoelectric/Libraries/CMSIS/Include\core_cm0.h **** 
 155:N:/EECS 473/Myoelectric/myoelectric/Libraries/CMSIS/Include\core_cm0.h ****     <strong>IO Type Qualifiers</strong> are used
 156:N:/EECS 473/Myoelectric/myoelectric/Libraries/CMSIS/Include\core_cm0.h ****     \li to specify the access to peripheral variables.
 157:N:/EECS 473/Myoelectric/myoelectric/Libraries/CMSIS/Include\core_cm0.h ****     \li for automatic generation of peripheral register debug information.
 158:N:/EECS 473/Myoelectric/myoelectric/Libraries/CMSIS/Include\core_cm0.h **** */
 159:N:/EECS 473/Myoelectric/myoelectric/Libraries/CMSIS/Include\core_cm0.h **** #ifdef __cplusplus
 160:N:/EECS 473/Myoelectric/myoelectric/Libraries/CMSIS/Include\core_cm0.h ****   #define   __I     volatile             /*!< Defines 'read only' permissions */
 161:N:/EECS 473/Myoelectric/myoelectric/Libraries/CMSIS/Include\core_cm0.h **** #else
 162:N:/EECS 473/Myoelectric/myoelectric/Libraries/CMSIS/Include\core_cm0.h ****   #define   __I     volatile const       /*!< Defines 'read only' permissions */
 163:N:/EECS 473/Myoelectric/myoelectric/Libraries/CMSIS/Include\core_cm0.h **** #endif
 164:N:/EECS 473/Myoelectric/myoelectric/Libraries/CMSIS/Include\core_cm0.h **** #define     __O     volatile             /*!< Defines 'write only' permissions */
 165:N:/EECS 473/Myoelectric/myoelectric/Libraries/CMSIS/Include\core_cm0.h **** #define     __IO    volatile             /*!< Defines 'read / write' permissions */
 166:N:/EECS 473/Myoelectric/myoelectric/Libraries/CMSIS/Include\core_cm0.h **** 
 167:N:/EECS 473/Myoelectric/myoelectric/Libraries/CMSIS/Include\core_cm0.h **** /* following defines should be used for structure members */
 168:N:/EECS 473/Myoelectric/myoelectric/Libraries/CMSIS/Include\core_cm0.h **** #define     __IM     volatile const      /*! Defines 'read only' structure member permissions */
 169:N:/EECS 473/Myoelectric/myoelectric/Libraries/CMSIS/Include\core_cm0.h **** #define     __OM     volatile            /*! Defines 'write only' structure member permissions */
 170:N:/EECS 473/Myoelectric/myoelectric/Libraries/CMSIS/Include\core_cm0.h **** #define     __IOM    volatile            /*! Defines 'read / write' structure member permissions */
 171:N:/EECS 473/Myoelectric/myoelectric/Libraries/CMSIS/Include\core_cm0.h **** 
 172:N:/EECS 473/Myoelectric/myoelectric/Libraries/CMSIS/Include\core_cm0.h **** /*@} end of group Cortex_M0 */
 173:N:/EECS 473/Myoelectric/myoelectric/Libraries/CMSIS/Include\core_cm0.h **** 
 174:N:/EECS 473/Myoelectric/myoelectric/Libraries/CMSIS/Include\core_cm0.h **** 
 175:N:/EECS 473/Myoelectric/myoelectric/Libraries/CMSIS/Include\core_cm0.h **** 
 176:N:/EECS 473/Myoelectric/myoelectric/Libraries/CMSIS/Include\core_cm0.h **** /*******************************************************************************
 177:N:/EECS 473/Myoelectric/myoelectric/Libraries/CMSIS/Include\core_cm0.h ****  *                 Register Abstraction
 178:N:/EECS 473/Myoelectric/myoelectric/Libraries/CMSIS/Include\core_cm0.h ****   Core Register contain:
 179:N:/EECS 473/Myoelectric/myoelectric/Libraries/CMSIS/Include\core_cm0.h ****   - Core Register
 180:N:/EECS 473/Myoelectric/myoelectric/Libraries/CMSIS/Include\core_cm0.h ****   - Core NVIC Register
 181:N:/EECS 473/Myoelectric/myoelectric/Libraries/CMSIS/Include\core_cm0.h ****   - Core SCB Register
 182:N:/EECS 473/Myoelectric/myoelectric/Libraries/CMSIS/Include\core_cm0.h ****   - Core SysTick Register
 183:N:/EECS 473/Myoelectric/myoelectric/Libraries/CMSIS/Include\core_cm0.h ****  ******************************************************************************/
 184:N:/EECS 473/Myoelectric/myoelectric/Libraries/CMSIS/Include\core_cm0.h **** /**
 185:N:/EECS 473/Myoelectric/myoelectric/Libraries/CMSIS/Include\core_cm0.h ****   \defgroup CMSIS_core_register Defines and Type Definitions
 186:N:/EECS 473/Myoelectric/myoelectric/Libraries/CMSIS/Include\core_cm0.h ****   \brief Type definitions and defines for Cortex-M processor based devices.
 187:N:/EECS 473/Myoelectric/myoelectric/Libraries/CMSIS/Include\core_cm0.h **** */
 188:N:/EECS 473/Myoelectric/myoelectric/Libraries/CMSIS/Include\core_cm0.h **** 
 189:N:/EECS 473/Myoelectric/myoelectric/Libraries/CMSIS/Include\core_cm0.h **** /**
 190:N:/EECS 473/Myoelectric/myoelectric/Libraries/CMSIS/Include\core_cm0.h ****   \ingroup    CMSIS_core_register
 191:N:/EECS 473/Myoelectric/myoelectric/Libraries/CMSIS/Include\core_cm0.h ****   \defgroup   CMSIS_CORE  Status and Control Registers
 192:N:/EECS 473/Myoelectric/myoelectric/Libraries/CMSIS/Include\core_cm0.h ****   \brief      Core Register type definitions.
 193:N:/EECS 473/Myoelectric/myoelectric/Libraries/CMSIS/Include\core_cm0.h ****   @{
 194:N:/EECS 473/Myoelectric/myoelectric/Libraries/CMSIS/Include\core_cm0.h ****  */
 195:N:/EECS 473/Myoelectric/myoelectric/Libraries/CMSIS/Include\core_cm0.h **** 
 196:N:/EECS 473/Myoelectric/myoelectric/Libraries/CMSIS/Include\core_cm0.h **** /**
 197:N:/EECS 473/Myoelectric/myoelectric/Libraries/CMSIS/Include\core_cm0.h ****   \brief  Union type to access the Application Program Status Register (APSR).
 198:N:/EECS 473/Myoelectric/myoelectric/Libraries/CMSIS/Include\core_cm0.h ****  */
 199:N:/EECS 473/Myoelectric/myoelectric/Libraries/CMSIS/Include\core_cm0.h **** typedef union
 200:N:/EECS 473/Myoelectric/myoelectric/Libraries/CMSIS/Include\core_cm0.h **** {
 201:N:/EECS 473/Myoelectric/myoelectric/Libraries/CMSIS/Include\core_cm0.h ****   struct
 202:N:/EECS 473/Myoelectric/myoelectric/Libraries/CMSIS/Include\core_cm0.h ****   {
 203:N:/EECS 473/Myoelectric/myoelectric/Libraries/CMSIS/Include\core_cm0.h ****     uint32_t _reserved0:28;              /*!< bit:  0..27  Reserved */
 204:N:/EECS 473/Myoelectric/myoelectric/Libraries/CMSIS/Include\core_cm0.h ****     uint32_t V:1;                        /*!< bit:     28  Overflow condition code flag */
 205:N:/EECS 473/Myoelectric/myoelectric/Libraries/CMSIS/Include\core_cm0.h ****     uint32_t C:1;                        /*!< bit:     29  Carry condition code flag */
 206:N:/EECS 473/Myoelectric/myoelectric/Libraries/CMSIS/Include\core_cm0.h ****     uint32_t Z:1;                        /*!< bit:     30  Zero condition code flag */
 207:N:/EECS 473/Myoelectric/myoelectric/Libraries/CMSIS/Include\core_cm0.h ****     uint32_t N:1;                        /*!< bit:     31  Negative condition code flag */
 208:N:/EECS 473/Myoelectric/myoelectric/Libraries/CMSIS/Include\core_cm0.h ****   } b;                                   /*!< Structure used for bit  access */
 209:N:/EECS 473/Myoelectric/myoelectric/Libraries/CMSIS/Include\core_cm0.h ****   uint32_t w;                            /*!< Type      used for word access */
 210:N:/EECS 473/Myoelectric/myoelectric/Libraries/CMSIS/Include\core_cm0.h **** } APSR_Type;
 211:N:/EECS 473/Myoelectric/myoelectric/Libraries/CMSIS/Include\core_cm0.h **** 
 212:N:/EECS 473/Myoelectric/myoelectric/Libraries/CMSIS/Include\core_cm0.h **** /* APSR Register Definitions */
 213:N:/EECS 473/Myoelectric/myoelectric/Libraries/CMSIS/Include\core_cm0.h **** #define APSR_N_Pos                         31U                                            /*!< APSR
 214:N:/EECS 473/Myoelectric/myoelectric/Libraries/CMSIS/Include\core_cm0.h **** #define APSR_N_Msk                         (1UL << APSR_N_Pos)                            /*!< APSR
 215:N:/EECS 473/Myoelectric/myoelectric/Libraries/CMSIS/Include\core_cm0.h **** 
 216:N:/EECS 473/Myoelectric/myoelectric/Libraries/CMSIS/Include\core_cm0.h **** #define APSR_Z_Pos                         30U                                            /*!< APSR
 217:N:/EECS 473/Myoelectric/myoelectric/Libraries/CMSIS/Include\core_cm0.h **** #define APSR_Z_Msk                         (1UL << APSR_Z_Pos)                            /*!< APSR
 218:N:/EECS 473/Myoelectric/myoelectric/Libraries/CMSIS/Include\core_cm0.h **** 
 219:N:/EECS 473/Myoelectric/myoelectric/Libraries/CMSIS/Include\core_cm0.h **** #define APSR_C_Pos                         29U                                            /*!< APSR
 220:N:/EECS 473/Myoelectric/myoelectric/Libraries/CMSIS/Include\core_cm0.h **** #define APSR_C_Msk                         (1UL << APSR_C_Pos)                            /*!< APSR
 221:N:/EECS 473/Myoelectric/myoelectric/Libraries/CMSIS/Include\core_cm0.h **** 
 222:N:/EECS 473/Myoelectric/myoelectric/Libraries/CMSIS/Include\core_cm0.h **** #define APSR_V_Pos                         28U                                            /*!< APSR
 223:N:/EECS 473/Myoelectric/myoelectric/Libraries/CMSIS/Include\core_cm0.h **** #define APSR_V_Msk                         (1UL << APSR_V_Pos)                            /*!< APSR
 224:N:/EECS 473/Myoelectric/myoelectric/Libraries/CMSIS/Include\core_cm0.h **** 
 225:N:/EECS 473/Myoelectric/myoelectric/Libraries/CMSIS/Include\core_cm0.h **** 
 226:N:/EECS 473/Myoelectric/myoelectric/Libraries/CMSIS/Include\core_cm0.h **** /**
 227:N:/EECS 473/Myoelectric/myoelectric/Libraries/CMSIS/Include\core_cm0.h ****   \brief  Union type to access the Interrupt Program Status Register (IPSR).
 228:N:/EECS 473/Myoelectric/myoelectric/Libraries/CMSIS/Include\core_cm0.h ****  */
 229:N:/EECS 473/Myoelectric/myoelectric/Libraries/CMSIS/Include\core_cm0.h **** typedef union
 230:N:/EECS 473/Myoelectric/myoelectric/Libraries/CMSIS/Include\core_cm0.h **** {
 231:N:/EECS 473/Myoelectric/myoelectric/Libraries/CMSIS/Include\core_cm0.h ****   struct
 232:N:/EECS 473/Myoelectric/myoelectric/Libraries/CMSIS/Include\core_cm0.h ****   {
 233:N:/EECS 473/Myoelectric/myoelectric/Libraries/CMSIS/Include\core_cm0.h ****     uint32_t ISR:9;                      /*!< bit:  0.. 8  Exception number */
 234:N:/EECS 473/Myoelectric/myoelectric/Libraries/CMSIS/Include\core_cm0.h ****     uint32_t _reserved0:23;              /*!< bit:  9..31  Reserved */
 235:N:/EECS 473/Myoelectric/myoelectric/Libraries/CMSIS/Include\core_cm0.h ****   } b;                                   /*!< Structure used for bit  access */
 236:N:/EECS 473/Myoelectric/myoelectric/Libraries/CMSIS/Include\core_cm0.h ****   uint32_t w;                            /*!< Type      used for word access */
 237:N:/EECS 473/Myoelectric/myoelectric/Libraries/CMSIS/Include\core_cm0.h **** } IPSR_Type;
 238:N:/EECS 473/Myoelectric/myoelectric/Libraries/CMSIS/Include\core_cm0.h **** 
 239:N:/EECS 473/Myoelectric/myoelectric/Libraries/CMSIS/Include\core_cm0.h **** /* IPSR Register Definitions */
 240:N:/EECS 473/Myoelectric/myoelectric/Libraries/CMSIS/Include\core_cm0.h **** #define IPSR_ISR_Pos                        0U                                            /*!< IPSR
 241:N:/EECS 473/Myoelectric/myoelectric/Libraries/CMSIS/Include\core_cm0.h **** #define IPSR_ISR_Msk                       (0x1FFUL /*<< IPSR_ISR_Pos*/)                  /*!< IPSR
 242:N:/EECS 473/Myoelectric/myoelectric/Libraries/CMSIS/Include\core_cm0.h **** 
 243:N:/EECS 473/Myoelectric/myoelectric/Libraries/CMSIS/Include\core_cm0.h **** 
 244:N:/EECS 473/Myoelectric/myoelectric/Libraries/CMSIS/Include\core_cm0.h **** /**
 245:N:/EECS 473/Myoelectric/myoelectric/Libraries/CMSIS/Include\core_cm0.h ****   \brief  Union type to access the Special-Purpose Program Status Registers (xPSR).
 246:N:/EECS 473/Myoelectric/myoelectric/Libraries/CMSIS/Include\core_cm0.h ****  */
 247:N:/EECS 473/Myoelectric/myoelectric/Libraries/CMSIS/Include\core_cm0.h **** typedef union
 248:N:/EECS 473/Myoelectric/myoelectric/Libraries/CMSIS/Include\core_cm0.h **** {
 249:N:/EECS 473/Myoelectric/myoelectric/Libraries/CMSIS/Include\core_cm0.h ****   struct
 250:N:/EECS 473/Myoelectric/myoelectric/Libraries/CMSIS/Include\core_cm0.h ****   {
 251:N:/EECS 473/Myoelectric/myoelectric/Libraries/CMSIS/Include\core_cm0.h ****     uint32_t ISR:9;                      /*!< bit:  0.. 8  Exception number */
 252:N:/EECS 473/Myoelectric/myoelectric/Libraries/CMSIS/Include\core_cm0.h ****     uint32_t _reserved0:15;              /*!< bit:  9..23  Reserved */
 253:N:/EECS 473/Myoelectric/myoelectric/Libraries/CMSIS/Include\core_cm0.h ****     uint32_t T:1;                        /*!< bit:     24  Thumb bit        (read 0) */
 254:N:/EECS 473/Myoelectric/myoelectric/Libraries/CMSIS/Include\core_cm0.h ****     uint32_t _reserved1:3;               /*!< bit: 25..27  Reserved */
 255:N:/EECS 473/Myoelectric/myoelectric/Libraries/CMSIS/Include\core_cm0.h ****     uint32_t V:1;                        /*!< bit:     28  Overflow condition code flag */
 256:N:/EECS 473/Myoelectric/myoelectric/Libraries/CMSIS/Include\core_cm0.h ****     uint32_t C:1;                        /*!< bit:     29  Carry condition code flag */
 257:N:/EECS 473/Myoelectric/myoelectric/Libraries/CMSIS/Include\core_cm0.h ****     uint32_t Z:1;                        /*!< bit:     30  Zero condition code flag */
 258:N:/EECS 473/Myoelectric/myoelectric/Libraries/CMSIS/Include\core_cm0.h ****     uint32_t N:1;                        /*!< bit:     31  Negative condition code flag */
 259:N:/EECS 473/Myoelectric/myoelectric/Libraries/CMSIS/Include\core_cm0.h ****   } b;                                   /*!< Structure used for bit  access */
 260:N:/EECS 473/Myoelectric/myoelectric/Libraries/CMSIS/Include\core_cm0.h ****   uint32_t w;                            /*!< Type      used for word access */
 261:N:/EECS 473/Myoelectric/myoelectric/Libraries/CMSIS/Include\core_cm0.h **** } xPSR_Type;
 262:N:/EECS 473/Myoelectric/myoelectric/Libraries/CMSIS/Include\core_cm0.h **** 
 263:N:/EECS 473/Myoelectric/myoelectric/Libraries/CMSIS/Include\core_cm0.h **** /* xPSR Register Definitions */
 264:N:/EECS 473/Myoelectric/myoelectric/Libraries/CMSIS/Include\core_cm0.h **** #define xPSR_N_Pos                         31U                                            /*!< xPSR
 265:N:/EECS 473/Myoelectric/myoelectric/Libraries/CMSIS/Include\core_cm0.h **** #define xPSR_N_Msk                         (1UL << xPSR_N_Pos)                            /*!< xPSR
 266:N:/EECS 473/Myoelectric/myoelectric/Libraries/CMSIS/Include\core_cm0.h **** 
 267:N:/EECS 473/Myoelectric/myoelectric/Libraries/CMSIS/Include\core_cm0.h **** #define xPSR_Z_Pos                         30U                                            /*!< xPSR
 268:N:/EECS 473/Myoelectric/myoelectric/Libraries/CMSIS/Include\core_cm0.h **** #define xPSR_Z_Msk                         (1UL << xPSR_Z_Pos)                            /*!< xPSR
 269:N:/EECS 473/Myoelectric/myoelectric/Libraries/CMSIS/Include\core_cm0.h **** 
 270:N:/EECS 473/Myoelectric/myoelectric/Libraries/CMSIS/Include\core_cm0.h **** #define xPSR_C_Pos                         29U                                            /*!< xPSR
 271:N:/EECS 473/Myoelectric/myoelectric/Libraries/CMSIS/Include\core_cm0.h **** #define xPSR_C_Msk                         (1UL << xPSR_C_Pos)                            /*!< xPSR
 272:N:/EECS 473/Myoelectric/myoelectric/Libraries/CMSIS/Include\core_cm0.h **** 
 273:N:/EECS 473/Myoelectric/myoelectric/Libraries/CMSIS/Include\core_cm0.h **** #define xPSR_V_Pos                         28U                                            /*!< xPSR
 274:N:/EECS 473/Myoelectric/myoelectric/Libraries/CMSIS/Include\core_cm0.h **** #define xPSR_V_Msk                         (1UL << xPSR_V_Pos)                            /*!< xPSR
 275:N:/EECS 473/Myoelectric/myoelectric/Libraries/CMSIS/Include\core_cm0.h **** 
 276:N:/EECS 473/Myoelectric/myoelectric/Libraries/CMSIS/Include\core_cm0.h **** #define xPSR_T_Pos                         24U                                            /*!< xPSR
 277:N:/EECS 473/Myoelectric/myoelectric/Libraries/CMSIS/Include\core_cm0.h **** #define xPSR_T_Msk                         (1UL << xPSR_T_Pos)                            /*!< xPSR
 278:N:/EECS 473/Myoelectric/myoelectric/Libraries/CMSIS/Include\core_cm0.h **** 
 279:N:/EECS 473/Myoelectric/myoelectric/Libraries/CMSIS/Include\core_cm0.h **** #define xPSR_ISR_Pos                        0U                                            /*!< xPSR
 280:N:/EECS 473/Myoelectric/myoelectric/Libraries/CMSIS/Include\core_cm0.h **** #define xPSR_ISR_Msk                       (0x1FFUL /*<< xPSR_ISR_Pos*/)                  /*!< xPSR
 281:N:/EECS 473/Myoelectric/myoelectric/Libraries/CMSIS/Include\core_cm0.h **** 
 282:N:/EECS 473/Myoelectric/myoelectric/Libraries/CMSIS/Include\core_cm0.h **** 
 283:N:/EECS 473/Myoelectric/myoelectric/Libraries/CMSIS/Include\core_cm0.h **** /**
 284:N:/EECS 473/Myoelectric/myoelectric/Libraries/CMSIS/Include\core_cm0.h ****   \brief  Union type to access the Control Registers (CONTROL).
 285:N:/EECS 473/Myoelectric/myoelectric/Libraries/CMSIS/Include\core_cm0.h ****  */
 286:N:/EECS 473/Myoelectric/myoelectric/Libraries/CMSIS/Include\core_cm0.h **** typedef union
 287:N:/EECS 473/Myoelectric/myoelectric/Libraries/CMSIS/Include\core_cm0.h **** {
 288:N:/EECS 473/Myoelectric/myoelectric/Libraries/CMSIS/Include\core_cm0.h ****   struct
 289:N:/EECS 473/Myoelectric/myoelectric/Libraries/CMSIS/Include\core_cm0.h ****   {
 290:N:/EECS 473/Myoelectric/myoelectric/Libraries/CMSIS/Include\core_cm0.h ****     uint32_t _reserved0:1;               /*!< bit:      0  Reserved */
 291:N:/EECS 473/Myoelectric/myoelectric/Libraries/CMSIS/Include\core_cm0.h ****     uint32_t SPSEL:1;                    /*!< bit:      1  Stack to be used */
 292:N:/EECS 473/Myoelectric/myoelectric/Libraries/CMSIS/Include\core_cm0.h ****     uint32_t _reserved1:30;              /*!< bit:  2..31  Reserved */
 293:N:/EECS 473/Myoelectric/myoelectric/Libraries/CMSIS/Include\core_cm0.h ****   } b;                                   /*!< Structure used for bit  access */
 294:N:/EECS 473/Myoelectric/myoelectric/Libraries/CMSIS/Include\core_cm0.h ****   uint32_t w;                            /*!< Type      used for word access */
 295:N:/EECS 473/Myoelectric/myoelectric/Libraries/CMSIS/Include\core_cm0.h **** } CONTROL_Type;
 296:N:/EECS 473/Myoelectric/myoelectric/Libraries/CMSIS/Include\core_cm0.h **** 
 297:N:/EECS 473/Myoelectric/myoelectric/Libraries/CMSIS/Include\core_cm0.h **** /* CONTROL Register Definitions */
 298:N:/EECS 473/Myoelectric/myoelectric/Libraries/CMSIS/Include\core_cm0.h **** #define CONTROL_SPSEL_Pos                   1U                                            /*!< CONT
 299:N:/EECS 473/Myoelectric/myoelectric/Libraries/CMSIS/Include\core_cm0.h **** #define CONTROL_SPSEL_Msk                  (1UL << CONTROL_SPSEL_Pos)                     /*!< CONT
 300:N:/EECS 473/Myoelectric/myoelectric/Libraries/CMSIS/Include\core_cm0.h **** 
 301:N:/EECS 473/Myoelectric/myoelectric/Libraries/CMSIS/Include\core_cm0.h **** /*@} end of group CMSIS_CORE */
 302:N:/EECS 473/Myoelectric/myoelectric/Libraries/CMSIS/Include\core_cm0.h **** 
 303:N:/EECS 473/Myoelectric/myoelectric/Libraries/CMSIS/Include\core_cm0.h **** 
 304:N:/EECS 473/Myoelectric/myoelectric/Libraries/CMSIS/Include\core_cm0.h **** /**
 305:N:/EECS 473/Myoelectric/myoelectric/Libraries/CMSIS/Include\core_cm0.h ****   \ingroup    CMSIS_core_register
 306:N:/EECS 473/Myoelectric/myoelectric/Libraries/CMSIS/Include\core_cm0.h ****   \defgroup   CMSIS_NVIC  Nested Vectored Interrupt Controller (NVIC)
 307:N:/EECS 473/Myoelectric/myoelectric/Libraries/CMSIS/Include\core_cm0.h ****   \brief      Type definitions for the NVIC Registers
 308:N:/EECS 473/Myoelectric/myoelectric/Libraries/CMSIS/Include\core_cm0.h ****   @{
 309:N:/EECS 473/Myoelectric/myoelectric/Libraries/CMSIS/Include\core_cm0.h ****  */
 310:N:/EECS 473/Myoelectric/myoelectric/Libraries/CMSIS/Include\core_cm0.h **** 
 311:N:/EECS 473/Myoelectric/myoelectric/Libraries/CMSIS/Include\core_cm0.h **** /**
 312:N:/EECS 473/Myoelectric/myoelectric/Libraries/CMSIS/Include\core_cm0.h ****   \brief  Structure type to access the Nested Vectored Interrupt Controller (NVIC).
 313:N:/EECS 473/Myoelectric/myoelectric/Libraries/CMSIS/Include\core_cm0.h ****  */
 314:N:/EECS 473/Myoelectric/myoelectric/Libraries/CMSIS/Include\core_cm0.h **** typedef struct
 315:N:/EECS 473/Myoelectric/myoelectric/Libraries/CMSIS/Include\core_cm0.h **** {
 316:N:/EECS 473/Myoelectric/myoelectric/Libraries/CMSIS/Include\core_cm0.h ****   __IOM uint32_t ISER[1U];               /*!< Offset: 0x000 (R/W)  Interrupt Set Enable Register */
 317:N:/EECS 473/Myoelectric/myoelectric/Libraries/CMSIS/Include\core_cm0.h ****         uint32_t RESERVED0[31U];
 318:N:/EECS 473/Myoelectric/myoelectric/Libraries/CMSIS/Include\core_cm0.h ****   __IOM uint32_t ICER[1U];               /*!< Offset: 0x080 (R/W)  Interrupt Clear Enable Register 
 319:N:/EECS 473/Myoelectric/myoelectric/Libraries/CMSIS/Include\core_cm0.h ****         uint32_t RSERVED1[31U];
 320:N:/EECS 473/Myoelectric/myoelectric/Libraries/CMSIS/Include\core_cm0.h ****   __IOM uint32_t ISPR[1U];               /*!< Offset: 0x100 (R/W)  Interrupt Set Pending Register *
 321:N:/EECS 473/Myoelectric/myoelectric/Libraries/CMSIS/Include\core_cm0.h ****         uint32_t RESERVED2[31U];
 322:N:/EECS 473/Myoelectric/myoelectric/Libraries/CMSIS/Include\core_cm0.h ****   __IOM uint32_t ICPR[1U];               /*!< Offset: 0x180 (R/W)  Interrupt Clear Pending Register
 323:N:/EECS 473/Myoelectric/myoelectric/Libraries/CMSIS/Include\core_cm0.h ****         uint32_t RESERVED3[31U];
 324:N:/EECS 473/Myoelectric/myoelectric/Libraries/CMSIS/Include\core_cm0.h ****         uint32_t RESERVED4[64U];
 325:N:/EECS 473/Myoelectric/myoelectric/Libraries/CMSIS/Include\core_cm0.h ****   __IOM uint32_t IP[8U];                 /*!< Offset: 0x300 (R/W)  Interrupt Priority Register */
 326:N:/EECS 473/Myoelectric/myoelectric/Libraries/CMSIS/Include\core_cm0.h **** }  NVIC_Type;
 327:N:/EECS 473/Myoelectric/myoelectric/Libraries/CMSIS/Include\core_cm0.h **** 
 328:N:/EECS 473/Myoelectric/myoelectric/Libraries/CMSIS/Include\core_cm0.h **** /*@} end of group CMSIS_NVIC */
 329:N:/EECS 473/Myoelectric/myoelectric/Libraries/CMSIS/Include\core_cm0.h **** 
 330:N:/EECS 473/Myoelectric/myoelectric/Libraries/CMSIS/Include\core_cm0.h **** 
 331:N:/EECS 473/Myoelectric/myoelectric/Libraries/CMSIS/Include\core_cm0.h **** /**
 332:N:/EECS 473/Myoelectric/myoelectric/Libraries/CMSIS/Include\core_cm0.h ****   \ingroup  CMSIS_core_register
 333:N:/EECS 473/Myoelectric/myoelectric/Libraries/CMSIS/Include\core_cm0.h ****   \defgroup CMSIS_SCB     System Control Block (SCB)
 334:N:/EECS 473/Myoelectric/myoelectric/Libraries/CMSIS/Include\core_cm0.h ****   \brief    Type definitions for the System Control Block Registers
 335:N:/EECS 473/Myoelectric/myoelectric/Libraries/CMSIS/Include\core_cm0.h ****   @{
 336:N:/EECS 473/Myoelectric/myoelectric/Libraries/CMSIS/Include\core_cm0.h ****  */
 337:N:/EECS 473/Myoelectric/myoelectric/Libraries/CMSIS/Include\core_cm0.h **** 
 338:N:/EECS 473/Myoelectric/myoelectric/Libraries/CMSIS/Include\core_cm0.h **** /**
 339:N:/EECS 473/Myoelectric/myoelectric/Libraries/CMSIS/Include\core_cm0.h ****   \brief  Structure type to access the System Control Block (SCB).
 340:N:/EECS 473/Myoelectric/myoelectric/Libraries/CMSIS/Include\core_cm0.h ****  */
 341:N:/EECS 473/Myoelectric/myoelectric/Libraries/CMSIS/Include\core_cm0.h **** typedef struct
 342:N:/EECS 473/Myoelectric/myoelectric/Libraries/CMSIS/Include\core_cm0.h **** {
 343:N:/EECS 473/Myoelectric/myoelectric/Libraries/CMSIS/Include\core_cm0.h ****   __IM  uint32_t CPUID;                  /*!< Offset: 0x000 (R/ )  CPUID Base Register */
 344:N:/EECS 473/Myoelectric/myoelectric/Libraries/CMSIS/Include\core_cm0.h ****   __IOM uint32_t ICSR;                   /*!< Offset: 0x004 (R/W)  Interrupt Control and State Regi
 345:N:/EECS 473/Myoelectric/myoelectric/Libraries/CMSIS/Include\core_cm0.h ****         uint32_t RESERVED0;
 346:N:/EECS 473/Myoelectric/myoelectric/Libraries/CMSIS/Include\core_cm0.h ****   __IOM uint32_t AIRCR;                  /*!< Offset: 0x00C (R/W)  Application Interrupt and Reset 
 347:N:/EECS 473/Myoelectric/myoelectric/Libraries/CMSIS/Include\core_cm0.h ****   __IOM uint32_t SCR;                    /*!< Offset: 0x010 (R/W)  System Control Register */
 348:N:/EECS 473/Myoelectric/myoelectric/Libraries/CMSIS/Include\core_cm0.h ****   __IOM uint32_t CCR;                    /*!< Offset: 0x014 (R/W)  Configuration Control Register *
 349:N:/EECS 473/Myoelectric/myoelectric/Libraries/CMSIS/Include\core_cm0.h ****         uint32_t RESERVED1;
 350:N:/EECS 473/Myoelectric/myoelectric/Libraries/CMSIS/Include\core_cm0.h ****   __IOM uint32_t SHP[2U];                /*!< Offset: 0x01C (R/W)  System Handlers Priority Registe
 351:N:/EECS 473/Myoelectric/myoelectric/Libraries/CMSIS/Include\core_cm0.h ****   __IOM uint32_t SHCSR;                  /*!< Offset: 0x024 (R/W)  System Handler Control and State
 352:N:/EECS 473/Myoelectric/myoelectric/Libraries/CMSIS/Include\core_cm0.h **** } SCB_Type;
 353:N:/EECS 473/Myoelectric/myoelectric/Libraries/CMSIS/Include\core_cm0.h **** 
 354:N:/EECS 473/Myoelectric/myoelectric/Libraries/CMSIS/Include\core_cm0.h **** /* SCB CPUID Register Definitions */
 355:N:/EECS 473/Myoelectric/myoelectric/Libraries/CMSIS/Include\core_cm0.h **** #define SCB_CPUID_IMPLEMENTER_Pos          24U                                            /*!< SCB 
 356:N:/EECS 473/Myoelectric/myoelectric/Libraries/CMSIS/Include\core_cm0.h **** #define SCB_CPUID_IMPLEMENTER_Msk          (0xFFUL << SCB_CPUID_IMPLEMENTER_Pos)          /*!< SCB 
 357:N:/EECS 473/Myoelectric/myoelectric/Libraries/CMSIS/Include\core_cm0.h **** 
 358:N:/EECS 473/Myoelectric/myoelectric/Libraries/CMSIS/Include\core_cm0.h **** #define SCB_CPUID_VARIANT_Pos              20U                                            /*!< SCB 
 359:N:/EECS 473/Myoelectric/myoelectric/Libraries/CMSIS/Include\core_cm0.h **** #define SCB_CPUID_VARIANT_Msk              (0xFUL << SCB_CPUID_VARIANT_Pos)               /*!< SCB 
 360:N:/EECS 473/Myoelectric/myoelectric/Libraries/CMSIS/Include\core_cm0.h **** 
 361:N:/EECS 473/Myoelectric/myoelectric/Libraries/CMSIS/Include\core_cm0.h **** #define SCB_CPUID_ARCHITECTURE_Pos         16U                                            /*!< SCB 
 362:N:/EECS 473/Myoelectric/myoelectric/Libraries/CMSIS/Include\core_cm0.h **** #define SCB_CPUID_ARCHITECTURE_Msk         (0xFUL << SCB_CPUID_ARCHITECTURE_Pos)          /*!< SCB 
 363:N:/EECS 473/Myoelectric/myoelectric/Libraries/CMSIS/Include\core_cm0.h **** 
 364:N:/EECS 473/Myoelectric/myoelectric/Libraries/CMSIS/Include\core_cm0.h **** #define SCB_CPUID_PARTNO_Pos                4U                                            /*!< SCB 
 365:N:/EECS 473/Myoelectric/myoelectric/Libraries/CMSIS/Include\core_cm0.h **** #define SCB_CPUID_PARTNO_Msk               (0xFFFUL << SCB_CPUID_PARTNO_Pos)              /*!< SCB 
 366:N:/EECS 473/Myoelectric/myoelectric/Libraries/CMSIS/Include\core_cm0.h **** 
 367:N:/EECS 473/Myoelectric/myoelectric/Libraries/CMSIS/Include\core_cm0.h **** #define SCB_CPUID_REVISION_Pos              0U                                            /*!< SCB 
 368:N:/EECS 473/Myoelectric/myoelectric/Libraries/CMSIS/Include\core_cm0.h **** #define SCB_CPUID_REVISION_Msk             (0xFUL /*<< SCB_CPUID_REVISION_Pos*/)          /*!< SCB 
 369:N:/EECS 473/Myoelectric/myoelectric/Libraries/CMSIS/Include\core_cm0.h **** 
 370:N:/EECS 473/Myoelectric/myoelectric/Libraries/CMSIS/Include\core_cm0.h **** /* SCB Interrupt Control State Register Definitions */
 371:N:/EECS 473/Myoelectric/myoelectric/Libraries/CMSIS/Include\core_cm0.h **** #define SCB_ICSR_NMIPENDSET_Pos            31U                                            /*!< SCB 
 372:N:/EECS 473/Myoelectric/myoelectric/Libraries/CMSIS/Include\core_cm0.h **** #define SCB_ICSR_NMIPENDSET_Msk            (1UL << SCB_ICSR_NMIPENDSET_Pos)               /*!< SCB 
 373:N:/EECS 473/Myoelectric/myoelectric/Libraries/CMSIS/Include\core_cm0.h **** 
 374:N:/EECS 473/Myoelectric/myoelectric/Libraries/CMSIS/Include\core_cm0.h **** #define SCB_ICSR_PENDSVSET_Pos             28U                                            /*!< SCB 
 375:N:/EECS 473/Myoelectric/myoelectric/Libraries/CMSIS/Include\core_cm0.h **** #define SCB_ICSR_PENDSVSET_Msk             (1UL << SCB_ICSR_PENDSVSET_Pos)                /*!< SCB 
 376:N:/EECS 473/Myoelectric/myoelectric/Libraries/CMSIS/Include\core_cm0.h **** 
 377:N:/EECS 473/Myoelectric/myoelectric/Libraries/CMSIS/Include\core_cm0.h **** #define SCB_ICSR_PENDSVCLR_Pos             27U                                            /*!< SCB 
 378:N:/EECS 473/Myoelectric/myoelectric/Libraries/CMSIS/Include\core_cm0.h **** #define SCB_ICSR_PENDSVCLR_Msk             (1UL << SCB_ICSR_PENDSVCLR_Pos)                /*!< SCB 
 379:N:/EECS 473/Myoelectric/myoelectric/Libraries/CMSIS/Include\core_cm0.h **** 
 380:N:/EECS 473/Myoelectric/myoelectric/Libraries/CMSIS/Include\core_cm0.h **** #define SCB_ICSR_PENDSTSET_Pos             26U                                            /*!< SCB 
 381:N:/EECS 473/Myoelectric/myoelectric/Libraries/CMSIS/Include\core_cm0.h **** #define SCB_ICSR_PENDSTSET_Msk             (1UL << SCB_ICSR_PENDSTSET_Pos)                /*!< SCB 
 382:N:/EECS 473/Myoelectric/myoelectric/Libraries/CMSIS/Include\core_cm0.h **** 
 383:N:/EECS 473/Myoelectric/myoelectric/Libraries/CMSIS/Include\core_cm0.h **** #define SCB_ICSR_PENDSTCLR_Pos             25U                                            /*!< SCB 
 384:N:/EECS 473/Myoelectric/myoelectric/Libraries/CMSIS/Include\core_cm0.h **** #define SCB_ICSR_PENDSTCLR_Msk             (1UL << SCB_ICSR_PENDSTCLR_Pos)                /*!< SCB 
 385:N:/EECS 473/Myoelectric/myoelectric/Libraries/CMSIS/Include\core_cm0.h **** 
 386:N:/EECS 473/Myoelectric/myoelectric/Libraries/CMSIS/Include\core_cm0.h **** #define SCB_ICSR_ISRPREEMPT_Pos            23U                                            /*!< SCB 
 387:N:/EECS 473/Myoelectric/myoelectric/Libraries/CMSIS/Include\core_cm0.h **** #define SCB_ICSR_ISRPREEMPT_Msk            (1UL << SCB_ICSR_ISRPREEMPT_Pos)               /*!< SCB 
 388:N:/EECS 473/Myoelectric/myoelectric/Libraries/CMSIS/Include\core_cm0.h **** 
 389:N:/EECS 473/Myoelectric/myoelectric/Libraries/CMSIS/Include\core_cm0.h **** #define SCB_ICSR_ISRPENDING_Pos            22U                                            /*!< SCB 
 390:N:/EECS 473/Myoelectric/myoelectric/Libraries/CMSIS/Include\core_cm0.h **** #define SCB_ICSR_ISRPENDING_Msk            (1UL << SCB_ICSR_ISRPENDING_Pos)               /*!< SCB 
 391:N:/EECS 473/Myoelectric/myoelectric/Libraries/CMSIS/Include\core_cm0.h **** 
 392:N:/EECS 473/Myoelectric/myoelectric/Libraries/CMSIS/Include\core_cm0.h **** #define SCB_ICSR_VECTPENDING_Pos           12U                                            /*!< SCB 
 393:N:/EECS 473/Myoelectric/myoelectric/Libraries/CMSIS/Include\core_cm0.h **** #define SCB_ICSR_VECTPENDING_Msk           (0x1FFUL << SCB_ICSR_VECTPENDING_Pos)          /*!< SCB 
 394:N:/EECS 473/Myoelectric/myoelectric/Libraries/CMSIS/Include\core_cm0.h **** 
 395:N:/EECS 473/Myoelectric/myoelectric/Libraries/CMSIS/Include\core_cm0.h **** #define SCB_ICSR_VECTACTIVE_Pos             0U                                            /*!< SCB 
 396:N:/EECS 473/Myoelectric/myoelectric/Libraries/CMSIS/Include\core_cm0.h **** #define SCB_ICSR_VECTACTIVE_Msk            (0x1FFUL /*<< SCB_ICSR_VECTACTIVE_Pos*/)       /*!< SCB 
 397:N:/EECS 473/Myoelectric/myoelectric/Libraries/CMSIS/Include\core_cm0.h **** 
 398:N:/EECS 473/Myoelectric/myoelectric/Libraries/CMSIS/Include\core_cm0.h **** /* SCB Application Interrupt and Reset Control Register Definitions */
 399:N:/EECS 473/Myoelectric/myoelectric/Libraries/CMSIS/Include\core_cm0.h **** #define SCB_AIRCR_VECTKEY_Pos              16U                                            /*!< SCB 
 400:N:/EECS 473/Myoelectric/myoelectric/Libraries/CMSIS/Include\core_cm0.h **** #define SCB_AIRCR_VECTKEY_Msk              (0xFFFFUL << SCB_AIRCR_VECTKEY_Pos)            /*!< SCB 
 401:N:/EECS 473/Myoelectric/myoelectric/Libraries/CMSIS/Include\core_cm0.h **** 
 402:N:/EECS 473/Myoelectric/myoelectric/Libraries/CMSIS/Include\core_cm0.h **** #define SCB_AIRCR_VECTKEYSTAT_Pos          16U                                            /*!< SCB 
 403:N:/EECS 473/Myoelectric/myoelectric/Libraries/CMSIS/Include\core_cm0.h **** #define SCB_AIRCR_VECTKEYSTAT_Msk          (0xFFFFUL << SCB_AIRCR_VECTKEYSTAT_Pos)        /*!< SCB 
 404:N:/EECS 473/Myoelectric/myoelectric/Libraries/CMSIS/Include\core_cm0.h **** 
 405:N:/EECS 473/Myoelectric/myoelectric/Libraries/CMSIS/Include\core_cm0.h **** #define SCB_AIRCR_ENDIANESS_Pos            15U                                            /*!< SCB 
 406:N:/EECS 473/Myoelectric/myoelectric/Libraries/CMSIS/Include\core_cm0.h **** #define SCB_AIRCR_ENDIANESS_Msk            (1UL << SCB_AIRCR_ENDIANESS_Pos)               /*!< SCB 
 407:N:/EECS 473/Myoelectric/myoelectric/Libraries/CMSIS/Include\core_cm0.h **** 
 408:N:/EECS 473/Myoelectric/myoelectric/Libraries/CMSIS/Include\core_cm0.h **** #define SCB_AIRCR_SYSRESETREQ_Pos           2U                                            /*!< SCB 
 409:N:/EECS 473/Myoelectric/myoelectric/Libraries/CMSIS/Include\core_cm0.h **** #define SCB_AIRCR_SYSRESETREQ_Msk          (1UL << SCB_AIRCR_SYSRESETREQ_Pos)             /*!< SCB 
 410:N:/EECS 473/Myoelectric/myoelectric/Libraries/CMSIS/Include\core_cm0.h **** 
 411:N:/EECS 473/Myoelectric/myoelectric/Libraries/CMSIS/Include\core_cm0.h **** #define SCB_AIRCR_VECTCLRACTIVE_Pos         1U                                            /*!< SCB 
 412:N:/EECS 473/Myoelectric/myoelectric/Libraries/CMSIS/Include\core_cm0.h **** #define SCB_AIRCR_VECTCLRACTIVE_Msk        (1UL << SCB_AIRCR_VECTCLRACTIVE_Pos)           /*!< SCB 
 413:N:/EECS 473/Myoelectric/myoelectric/Libraries/CMSIS/Include\core_cm0.h **** 
 414:N:/EECS 473/Myoelectric/myoelectric/Libraries/CMSIS/Include\core_cm0.h **** /* SCB System Control Register Definitions */
 415:N:/EECS 473/Myoelectric/myoelectric/Libraries/CMSIS/Include\core_cm0.h **** #define SCB_SCR_SEVONPEND_Pos               4U                                            /*!< SCB 
 416:N:/EECS 473/Myoelectric/myoelectric/Libraries/CMSIS/Include\core_cm0.h **** #define SCB_SCR_SEVONPEND_Msk              (1UL << SCB_SCR_SEVONPEND_Pos)                 /*!< SCB 
 417:N:/EECS 473/Myoelectric/myoelectric/Libraries/CMSIS/Include\core_cm0.h **** 
 418:N:/EECS 473/Myoelectric/myoelectric/Libraries/CMSIS/Include\core_cm0.h **** #define SCB_SCR_SLEEPDEEP_Pos               2U                                            /*!< SCB 
 419:N:/EECS 473/Myoelectric/myoelectric/Libraries/CMSIS/Include\core_cm0.h **** #define SCB_SCR_SLEEPDEEP_Msk              (1UL << SCB_SCR_SLEEPDEEP_Pos)                 /*!< SCB 
 420:N:/EECS 473/Myoelectric/myoelectric/Libraries/CMSIS/Include\core_cm0.h **** 
 421:N:/EECS 473/Myoelectric/myoelectric/Libraries/CMSIS/Include\core_cm0.h **** #define SCB_SCR_SLEEPONEXIT_Pos             1U                                            /*!< SCB 
 422:N:/EECS 473/Myoelectric/myoelectric/Libraries/CMSIS/Include\core_cm0.h **** #define SCB_SCR_SLEEPONEXIT_Msk            (1UL << SCB_SCR_SLEEPONEXIT_Pos)               /*!< SCB 
 423:N:/EECS 473/Myoelectric/myoelectric/Libraries/CMSIS/Include\core_cm0.h **** 
 424:N:/EECS 473/Myoelectric/myoelectric/Libraries/CMSIS/Include\core_cm0.h **** /* SCB Configuration Control Register Definitions */
 425:N:/EECS 473/Myoelectric/myoelectric/Libraries/CMSIS/Include\core_cm0.h **** #define SCB_CCR_STKALIGN_Pos                9U                                            /*!< SCB 
 426:N:/EECS 473/Myoelectric/myoelectric/Libraries/CMSIS/Include\core_cm0.h **** #define SCB_CCR_STKALIGN_Msk               (1UL << SCB_CCR_STKALIGN_Pos)                  /*!< SCB 
 427:N:/EECS 473/Myoelectric/myoelectric/Libraries/CMSIS/Include\core_cm0.h **** 
 428:N:/EECS 473/Myoelectric/myoelectric/Libraries/CMSIS/Include\core_cm0.h **** #define SCB_CCR_UNALIGN_TRP_Pos             3U                                            /*!< SCB 
 429:N:/EECS 473/Myoelectric/myoelectric/Libraries/CMSIS/Include\core_cm0.h **** #define SCB_CCR_UNALIGN_TRP_Msk            (1UL << SCB_CCR_UNALIGN_TRP_Pos)               /*!< SCB 
 430:N:/EECS 473/Myoelectric/myoelectric/Libraries/CMSIS/Include\core_cm0.h **** 
 431:N:/EECS 473/Myoelectric/myoelectric/Libraries/CMSIS/Include\core_cm0.h **** /* SCB System Handler Control and State Register Definitions */
 432:N:/EECS 473/Myoelectric/myoelectric/Libraries/CMSIS/Include\core_cm0.h **** #define SCB_SHCSR_SVCALLPENDED_Pos         15U                                            /*!< SCB 
 433:N:/EECS 473/Myoelectric/myoelectric/Libraries/CMSIS/Include\core_cm0.h **** #define SCB_SHCSR_SVCALLPENDED_Msk         (1UL << SCB_SHCSR_SVCALLPENDED_Pos)            /*!< SCB 
 434:N:/EECS 473/Myoelectric/myoelectric/Libraries/CMSIS/Include\core_cm0.h **** 
 435:N:/EECS 473/Myoelectric/myoelectric/Libraries/CMSIS/Include\core_cm0.h **** /*@} end of group CMSIS_SCB */
 436:N:/EECS 473/Myoelectric/myoelectric/Libraries/CMSIS/Include\core_cm0.h **** 
 437:N:/EECS 473/Myoelectric/myoelectric/Libraries/CMSIS/Include\core_cm0.h **** 
 438:N:/EECS 473/Myoelectric/myoelectric/Libraries/CMSIS/Include\core_cm0.h **** /**
 439:N:/EECS 473/Myoelectric/myoelectric/Libraries/CMSIS/Include\core_cm0.h ****   \ingroup  CMSIS_core_register
 440:N:/EECS 473/Myoelectric/myoelectric/Libraries/CMSIS/Include\core_cm0.h ****   \defgroup CMSIS_SysTick     System Tick Timer (SysTick)
 441:N:/EECS 473/Myoelectric/myoelectric/Libraries/CMSIS/Include\core_cm0.h ****   \brief    Type definitions for the System Timer Registers.
 442:N:/EECS 473/Myoelectric/myoelectric/Libraries/CMSIS/Include\core_cm0.h ****   @{
 443:N:/EECS 473/Myoelectric/myoelectric/Libraries/CMSIS/Include\core_cm0.h ****  */
 444:N:/EECS 473/Myoelectric/myoelectric/Libraries/CMSIS/Include\core_cm0.h **** 
 445:N:/EECS 473/Myoelectric/myoelectric/Libraries/CMSIS/Include\core_cm0.h **** /**
 446:N:/EECS 473/Myoelectric/myoelectric/Libraries/CMSIS/Include\core_cm0.h ****   \brief  Structure type to access the System Timer (SysTick).
 447:N:/EECS 473/Myoelectric/myoelectric/Libraries/CMSIS/Include\core_cm0.h ****  */
 448:N:/EECS 473/Myoelectric/myoelectric/Libraries/CMSIS/Include\core_cm0.h **** typedef struct
 449:N:/EECS 473/Myoelectric/myoelectric/Libraries/CMSIS/Include\core_cm0.h **** {
 450:N:/EECS 473/Myoelectric/myoelectric/Libraries/CMSIS/Include\core_cm0.h ****   __IOM uint32_t CTRL;                   /*!< Offset: 0x000 (R/W)  SysTick Control and Status Regis
 451:N:/EECS 473/Myoelectric/myoelectric/Libraries/CMSIS/Include\core_cm0.h ****   __IOM uint32_t LOAD;                   /*!< Offset: 0x004 (R/W)  SysTick Reload Value Register */
 452:N:/EECS 473/Myoelectric/myoelectric/Libraries/CMSIS/Include\core_cm0.h ****   __IOM uint32_t VAL;                    /*!< Offset: 0x008 (R/W)  SysTick Current Value Register *
 453:N:/EECS 473/Myoelectric/myoelectric/Libraries/CMSIS/Include\core_cm0.h ****   __IM  uint32_t CALIB;                  /*!< Offset: 0x00C (R/ )  SysTick Calibration Register */
 454:N:/EECS 473/Myoelectric/myoelectric/Libraries/CMSIS/Include\core_cm0.h **** } SysTick_Type;
 455:N:/EECS 473/Myoelectric/myoelectric/Libraries/CMSIS/Include\core_cm0.h **** 
 456:N:/EECS 473/Myoelectric/myoelectric/Libraries/CMSIS/Include\core_cm0.h **** /* SysTick Control / Status Register Definitions */
 457:N:/EECS 473/Myoelectric/myoelectric/Libraries/CMSIS/Include\core_cm0.h **** #define SysTick_CTRL_COUNTFLAG_Pos         16U                                            /*!< SysT
 458:N:/EECS 473/Myoelectric/myoelectric/Libraries/CMSIS/Include\core_cm0.h **** #define SysTick_CTRL_COUNTFLAG_Msk         (1UL << SysTick_CTRL_COUNTFLAG_Pos)            /*!< SysT
 459:N:/EECS 473/Myoelectric/myoelectric/Libraries/CMSIS/Include\core_cm0.h **** 
 460:N:/EECS 473/Myoelectric/myoelectric/Libraries/CMSIS/Include\core_cm0.h **** #define SysTick_CTRL_CLKSOURCE_Pos          2U                                            /*!< SysT
 461:N:/EECS 473/Myoelectric/myoelectric/Libraries/CMSIS/Include\core_cm0.h **** #define SysTick_CTRL_CLKSOURCE_Msk         (1UL << SysTick_CTRL_CLKSOURCE_Pos)            /*!< SysT
 462:N:/EECS 473/Myoelectric/myoelectric/Libraries/CMSIS/Include\core_cm0.h **** 
 463:N:/EECS 473/Myoelectric/myoelectric/Libraries/CMSIS/Include\core_cm0.h **** #define SysTick_CTRL_TICKINT_Pos            1U                                            /*!< SysT
 464:N:/EECS 473/Myoelectric/myoelectric/Libraries/CMSIS/Include\core_cm0.h **** #define SysTick_CTRL_TICKINT_Msk           (1UL << SysTick_CTRL_TICKINT_Pos)              /*!< SysT
 465:N:/EECS 473/Myoelectric/myoelectric/Libraries/CMSIS/Include\core_cm0.h **** 
 466:N:/EECS 473/Myoelectric/myoelectric/Libraries/CMSIS/Include\core_cm0.h **** #define SysTick_CTRL_ENABLE_Pos             0U                                            /*!< SysT
 467:N:/EECS 473/Myoelectric/myoelectric/Libraries/CMSIS/Include\core_cm0.h **** #define SysTick_CTRL_ENABLE_Msk            (1UL /*<< SysTick_CTRL_ENABLE_Pos*/)           /*!< SysT
 468:N:/EECS 473/Myoelectric/myoelectric/Libraries/CMSIS/Include\core_cm0.h **** 
 469:N:/EECS 473/Myoelectric/myoelectric/Libraries/CMSIS/Include\core_cm0.h **** /* SysTick Reload Register Definitions */
 470:N:/EECS 473/Myoelectric/myoelectric/Libraries/CMSIS/Include\core_cm0.h **** #define SysTick_LOAD_RELOAD_Pos             0U                                            /*!< SysT
 471:N:/EECS 473/Myoelectric/myoelectric/Libraries/CMSIS/Include\core_cm0.h **** #define SysTick_LOAD_RELOAD_Msk            (0xFFFFFFUL /*<< SysTick_LOAD_RELOAD_Pos*/)    /*!< SysT
 472:N:/EECS 473/Myoelectric/myoelectric/Libraries/CMSIS/Include\core_cm0.h **** 
 473:N:/EECS 473/Myoelectric/myoelectric/Libraries/CMSIS/Include\core_cm0.h **** /* SysTick Current Register Definitions */
 474:N:/EECS 473/Myoelectric/myoelectric/Libraries/CMSIS/Include\core_cm0.h **** #define SysTick_VAL_CURRENT_Pos             0U                                            /*!< SysT
 475:N:/EECS 473/Myoelectric/myoelectric/Libraries/CMSIS/Include\core_cm0.h **** #define SysTick_VAL_CURRENT_Msk            (0xFFFFFFUL /*<< SysTick_VAL_CURRENT_Pos*/)    /*!< SysT
 476:N:/EECS 473/Myoelectric/myoelectric/Libraries/CMSIS/Include\core_cm0.h **** 
 477:N:/EECS 473/Myoelectric/myoelectric/Libraries/CMSIS/Include\core_cm0.h **** /* SysTick Calibration Register Definitions */
 478:N:/EECS 473/Myoelectric/myoelectric/Libraries/CMSIS/Include\core_cm0.h **** #define SysTick_CALIB_NOREF_Pos            31U                                            /*!< SysT
 479:N:/EECS 473/Myoelectric/myoelectric/Libraries/CMSIS/Include\core_cm0.h **** #define SysTick_CALIB_NOREF_Msk            (1UL << SysTick_CALIB_NOREF_Pos)               /*!< SysT
 480:N:/EECS 473/Myoelectric/myoelectric/Libraries/CMSIS/Include\core_cm0.h **** 
 481:N:/EECS 473/Myoelectric/myoelectric/Libraries/CMSIS/Include\core_cm0.h **** #define SysTick_CALIB_SKEW_Pos             30U                                            /*!< SysT
 482:N:/EECS 473/Myoelectric/myoelectric/Libraries/CMSIS/Include\core_cm0.h **** #define SysTick_CALIB_SKEW_Msk             (1UL << SysTick_CALIB_SKEW_Pos)                /*!< SysT
 483:N:/EECS 473/Myoelectric/myoelectric/Libraries/CMSIS/Include\core_cm0.h **** 
 484:N:/EECS 473/Myoelectric/myoelectric/Libraries/CMSIS/Include\core_cm0.h **** #define SysTick_CALIB_TENMS_Pos             0U                                            /*!< SysT
 485:N:/EECS 473/Myoelectric/myoelectric/Libraries/CMSIS/Include\core_cm0.h **** #define SysTick_CALIB_TENMS_Msk            (0xFFFFFFUL /*<< SysTick_CALIB_TENMS_Pos*/)    /*!< SysT
 486:N:/EECS 473/Myoelectric/myoelectric/Libraries/CMSIS/Include\core_cm0.h **** 
 487:N:/EECS 473/Myoelectric/myoelectric/Libraries/CMSIS/Include\core_cm0.h **** /*@} end of group CMSIS_SysTick */
 488:N:/EECS 473/Myoelectric/myoelectric/Libraries/CMSIS/Include\core_cm0.h **** 
 489:N:/EECS 473/Myoelectric/myoelectric/Libraries/CMSIS/Include\core_cm0.h **** 
 490:N:/EECS 473/Myoelectric/myoelectric/Libraries/CMSIS/Include\core_cm0.h **** /**
 491:N:/EECS 473/Myoelectric/myoelectric/Libraries/CMSIS/Include\core_cm0.h ****   \ingroup  CMSIS_core_register
 492:N:/EECS 473/Myoelectric/myoelectric/Libraries/CMSIS/Include\core_cm0.h ****   \defgroup CMSIS_CoreDebug       Core Debug Registers (CoreDebug)
 493:N:/EECS 473/Myoelectric/myoelectric/Libraries/CMSIS/Include\core_cm0.h ****   \brief    Cortex-M0 Core Debug Registers (DCB registers, SHCSR, and DFSR) are only accessible ove
 494:N:/EECS 473/Myoelectric/myoelectric/Libraries/CMSIS/Include\core_cm0.h ****             Therefore they are not covered by the Cortex-M0 header file.
 495:N:/EECS 473/Myoelectric/myoelectric/Libraries/CMSIS/Include\core_cm0.h ****   @{
 496:N:/EECS 473/Myoelectric/myoelectric/Libraries/CMSIS/Include\core_cm0.h ****  */
 497:N:/EECS 473/Myoelectric/myoelectric/Libraries/CMSIS/Include\core_cm0.h **** /*@} end of group CMSIS_CoreDebug */
 498:N:/EECS 473/Myoelectric/myoelectric/Libraries/CMSIS/Include\core_cm0.h **** 
 499:N:/EECS 473/Myoelectric/myoelectric/Libraries/CMSIS/Include\core_cm0.h **** 
 500:N:/EECS 473/Myoelectric/myoelectric/Libraries/CMSIS/Include\core_cm0.h **** /**
 501:N:/EECS 473/Myoelectric/myoelectric/Libraries/CMSIS/Include\core_cm0.h ****   \ingroup    CMSIS_core_register
 502:N:/EECS 473/Myoelectric/myoelectric/Libraries/CMSIS/Include\core_cm0.h ****   \defgroup   CMSIS_core_bitfield     Core register bit field macros
 503:N:/EECS 473/Myoelectric/myoelectric/Libraries/CMSIS/Include\core_cm0.h ****   \brief      Macros for use with bit field definitions (xxx_Pos, xxx_Msk).
 504:N:/EECS 473/Myoelectric/myoelectric/Libraries/CMSIS/Include\core_cm0.h ****   @{
 505:N:/EECS 473/Myoelectric/myoelectric/Libraries/CMSIS/Include\core_cm0.h ****  */
 506:N:/EECS 473/Myoelectric/myoelectric/Libraries/CMSIS/Include\core_cm0.h **** 
 507:N:/EECS 473/Myoelectric/myoelectric/Libraries/CMSIS/Include\core_cm0.h **** /**
 508:N:/EECS 473/Myoelectric/myoelectric/Libraries/CMSIS/Include\core_cm0.h ****   \brief   Mask and shift a bit field value for use in a register bit range.
 509:N:/EECS 473/Myoelectric/myoelectric/Libraries/CMSIS/Include\core_cm0.h ****   \param[in] field  Name of the register bit field.
 510:N:/EECS 473/Myoelectric/myoelectric/Libraries/CMSIS/Include\core_cm0.h ****   \param[in] value  Value of the bit field. This parameter is interpreted as an uint32_t type.
 511:N:/EECS 473/Myoelectric/myoelectric/Libraries/CMSIS/Include\core_cm0.h ****   \return           Masked and shifted value.
 512:N:/EECS 473/Myoelectric/myoelectric/Libraries/CMSIS/Include\core_cm0.h **** */
 513:N:/EECS 473/Myoelectric/myoelectric/Libraries/CMSIS/Include\core_cm0.h **** #define _VAL2FLD(field, value)    (((uint32_t)(value) << field ## _Pos) & field ## _Msk)
 514:N:/EECS 473/Myoelectric/myoelectric/Libraries/CMSIS/Include\core_cm0.h **** 
 515:N:/EECS 473/Myoelectric/myoelectric/Libraries/CMSIS/Include\core_cm0.h **** /**
 516:N:/EECS 473/Myoelectric/myoelectric/Libraries/CMSIS/Include\core_cm0.h ****   \brief     Mask and shift a register value to extract a bit filed value.
 517:N:/EECS 473/Myoelectric/myoelectric/Libraries/CMSIS/Include\core_cm0.h ****   \param[in] field  Name of the register bit field.
 518:N:/EECS 473/Myoelectric/myoelectric/Libraries/CMSIS/Include\core_cm0.h ****   \param[in] value  Value of register. This parameter is interpreted as an uint32_t type.
 519:N:/EECS 473/Myoelectric/myoelectric/Libraries/CMSIS/Include\core_cm0.h ****   \return           Masked and shifted bit field value.
 520:N:/EECS 473/Myoelectric/myoelectric/Libraries/CMSIS/Include\core_cm0.h **** */
 521:N:/EECS 473/Myoelectric/myoelectric/Libraries/CMSIS/Include\core_cm0.h **** #define _FLD2VAL(field, value)    (((uint32_t)(value) & field ## _Msk) >> field ## _Pos)
 522:N:/EECS 473/Myoelectric/myoelectric/Libraries/CMSIS/Include\core_cm0.h **** 
 523:N:/EECS 473/Myoelectric/myoelectric/Libraries/CMSIS/Include\core_cm0.h **** /*@} end of group CMSIS_core_bitfield */
 524:N:/EECS 473/Myoelectric/myoelectric/Libraries/CMSIS/Include\core_cm0.h **** 
 525:N:/EECS 473/Myoelectric/myoelectric/Libraries/CMSIS/Include\core_cm0.h **** 
 526:N:/EECS 473/Myoelectric/myoelectric/Libraries/CMSIS/Include\core_cm0.h **** /**
 527:N:/EECS 473/Myoelectric/myoelectric/Libraries/CMSIS/Include\core_cm0.h ****   \ingroup    CMSIS_core_register
 528:N:/EECS 473/Myoelectric/myoelectric/Libraries/CMSIS/Include\core_cm0.h ****   \defgroup   CMSIS_core_base     Core Definitions
 529:N:/EECS 473/Myoelectric/myoelectric/Libraries/CMSIS/Include\core_cm0.h ****   \brief      Definitions for base addresses, unions, and structures.
 530:N:/EECS 473/Myoelectric/myoelectric/Libraries/CMSIS/Include\core_cm0.h ****   @{
 531:N:/EECS 473/Myoelectric/myoelectric/Libraries/CMSIS/Include\core_cm0.h ****  */
 532:N:/EECS 473/Myoelectric/myoelectric/Libraries/CMSIS/Include\core_cm0.h **** 
 533:N:/EECS 473/Myoelectric/myoelectric/Libraries/CMSIS/Include\core_cm0.h **** /* Memory mapping of Core Hardware */
 534:N:/EECS 473/Myoelectric/myoelectric/Libraries/CMSIS/Include\core_cm0.h **** #define SCS_BASE            (0xE000E000UL)                            /*!< System Control Space Bas
 535:N:/EECS 473/Myoelectric/myoelectric/Libraries/CMSIS/Include\core_cm0.h **** #define SysTick_BASE        (SCS_BASE +  0x0010UL)                    /*!< SysTick Base Address */
 536:N:/EECS 473/Myoelectric/myoelectric/Libraries/CMSIS/Include\core_cm0.h **** #define NVIC_BASE           (SCS_BASE +  0x0100UL)                    /*!< NVIC Base Address */
 537:N:/EECS 473/Myoelectric/myoelectric/Libraries/CMSIS/Include\core_cm0.h **** #define SCB_BASE            (SCS_BASE +  0x0D00UL)                    /*!< System Control Block Bas
 538:N:/EECS 473/Myoelectric/myoelectric/Libraries/CMSIS/Include\core_cm0.h **** 
 539:N:/EECS 473/Myoelectric/myoelectric/Libraries/CMSIS/Include\core_cm0.h **** #define SCB                 ((SCB_Type       *)     SCB_BASE      )   /*!< SCB configuration struct
 540:N:/EECS 473/Myoelectric/myoelectric/Libraries/CMSIS/Include\core_cm0.h **** #define SysTick             ((SysTick_Type   *)     SysTick_BASE  )   /*!< SysTick configuration st
 541:N:/EECS 473/Myoelectric/myoelectric/Libraries/CMSIS/Include\core_cm0.h **** #define NVIC                ((NVIC_Type      *)     NVIC_BASE     )   /*!< NVIC configuration struc
 542:N:/EECS 473/Myoelectric/myoelectric/Libraries/CMSIS/Include\core_cm0.h **** 
 543:N:/EECS 473/Myoelectric/myoelectric/Libraries/CMSIS/Include\core_cm0.h **** 
 544:N:/EECS 473/Myoelectric/myoelectric/Libraries/CMSIS/Include\core_cm0.h **** /*@} */
 545:N:/EECS 473/Myoelectric/myoelectric/Libraries/CMSIS/Include\core_cm0.h **** 
 546:N:/EECS 473/Myoelectric/myoelectric/Libraries/CMSIS/Include\core_cm0.h **** 
 547:N:/EECS 473/Myoelectric/myoelectric/Libraries/CMSIS/Include\core_cm0.h **** 
 548:N:/EECS 473/Myoelectric/myoelectric/Libraries/CMSIS/Include\core_cm0.h **** /*******************************************************************************
 549:N:/EECS 473/Myoelectric/myoelectric/Libraries/CMSIS/Include\core_cm0.h ****  *                Hardware Abstraction Layer
 550:N:/EECS 473/Myoelectric/myoelectric/Libraries/CMSIS/Include\core_cm0.h ****   Core Function Interface contains:
 551:N:/EECS 473/Myoelectric/myoelectric/Libraries/CMSIS/Include\core_cm0.h ****   - Core NVIC Functions
 552:N:/EECS 473/Myoelectric/myoelectric/Libraries/CMSIS/Include\core_cm0.h ****   - Core SysTick Functions
 553:N:/EECS 473/Myoelectric/myoelectric/Libraries/CMSIS/Include\core_cm0.h ****   - Core Register Access Functions
 554:N:/EECS 473/Myoelectric/myoelectric/Libraries/CMSIS/Include\core_cm0.h ****  ******************************************************************************/
 555:N:/EECS 473/Myoelectric/myoelectric/Libraries/CMSIS/Include\core_cm0.h **** /**
 556:N:/EECS 473/Myoelectric/myoelectric/Libraries/CMSIS/Include\core_cm0.h ****   \defgroup CMSIS_Core_FunctionInterface Functions and Instructions Reference
 557:N:/EECS 473/Myoelectric/myoelectric/Libraries/CMSIS/Include\core_cm0.h **** */
 558:N:/EECS 473/Myoelectric/myoelectric/Libraries/CMSIS/Include\core_cm0.h **** 
 559:N:/EECS 473/Myoelectric/myoelectric/Libraries/CMSIS/Include\core_cm0.h **** 
 560:N:/EECS 473/Myoelectric/myoelectric/Libraries/CMSIS/Include\core_cm0.h **** 
 561:N:/EECS 473/Myoelectric/myoelectric/Libraries/CMSIS/Include\core_cm0.h **** /* ##########################   NVIC functions  #################################### */
 562:N:/EECS 473/Myoelectric/myoelectric/Libraries/CMSIS/Include\core_cm0.h **** /**
 563:N:/EECS 473/Myoelectric/myoelectric/Libraries/CMSIS/Include\core_cm0.h ****   \ingroup  CMSIS_Core_FunctionInterface
 564:N:/EECS 473/Myoelectric/myoelectric/Libraries/CMSIS/Include\core_cm0.h ****   \defgroup CMSIS_Core_NVICFunctions NVIC Functions
 565:N:/EECS 473/Myoelectric/myoelectric/Libraries/CMSIS/Include\core_cm0.h ****   \brief    Functions that manage interrupts and exceptions via the NVIC.
 566:N:/EECS 473/Myoelectric/myoelectric/Libraries/CMSIS/Include\core_cm0.h ****   @{
 567:N:/EECS 473/Myoelectric/myoelectric/Libraries/CMSIS/Include\core_cm0.h ****  */
 568:N:/EECS 473/Myoelectric/myoelectric/Libraries/CMSIS/Include\core_cm0.h **** 
 569:N:/EECS 473/Myoelectric/myoelectric/Libraries/CMSIS/Include\core_cm0.h **** #ifdef CMSIS_NVIC_VIRTUAL
 570:N:/EECS 473/Myoelectric/myoelectric/Libraries/CMSIS/Include\core_cm0.h ****   #ifndef CMSIS_NVIC_VIRTUAL_HEADER_FILE
 571:N:/EECS 473/Myoelectric/myoelectric/Libraries/CMSIS/Include\core_cm0.h ****     #define CMSIS_NVIC_VIRTUAL_HEADER_FILE "cmsis_nvic_virtual.h"
 572:N:/EECS 473/Myoelectric/myoelectric/Libraries/CMSIS/Include\core_cm0.h ****   #endif
 573:N:/EECS 473/Myoelectric/myoelectric/Libraries/CMSIS/Include\core_cm0.h ****   #include CMSIS_NVIC_VIRTUAL_HEADER_FILE
 574:N:/EECS 473/Myoelectric/myoelectric/Libraries/CMSIS/Include\core_cm0.h **** #else
 575:N:/EECS 473/Myoelectric/myoelectric/Libraries/CMSIS/Include\core_cm0.h ****   #define NVIC_SetPriorityGrouping    __NVIC_SetPriorityGrouping
 576:N:/EECS 473/Myoelectric/myoelectric/Libraries/CMSIS/Include\core_cm0.h ****   #define NVIC_GetPriorityGrouping    __NVIC_GetPriorityGrouping
 577:N:/EECS 473/Myoelectric/myoelectric/Libraries/CMSIS/Include\core_cm0.h ****   #define NVIC_EnableIRQ              __NVIC_EnableIRQ
 578:N:/EECS 473/Myoelectric/myoelectric/Libraries/CMSIS/Include\core_cm0.h ****   #define NVIC_GetEnableIRQ           __NVIC_GetEnableIRQ
 579:N:/EECS 473/Myoelectric/myoelectric/Libraries/CMSIS/Include\core_cm0.h ****   #define NVIC_DisableIRQ             __NVIC_DisableIRQ
 580:N:/EECS 473/Myoelectric/myoelectric/Libraries/CMSIS/Include\core_cm0.h ****   #define NVIC_GetPendingIRQ          __NVIC_GetPendingIRQ
 581:N:/EECS 473/Myoelectric/myoelectric/Libraries/CMSIS/Include\core_cm0.h ****   #define NVIC_SetPendingIRQ          __NVIC_SetPendingIRQ
 582:N:/EECS 473/Myoelectric/myoelectric/Libraries/CMSIS/Include\core_cm0.h ****   #define NVIC_ClearPendingIRQ        __NVIC_ClearPendingIRQ
 583:N:/EECS 473/Myoelectric/myoelectric/Libraries/CMSIS/Include\core_cm0.h **** /*#define NVIC_GetActive              __NVIC_GetActive             not available for Cortex-M0 */
 584:N:/EECS 473/Myoelectric/myoelectric/Libraries/CMSIS/Include\core_cm0.h ****   #define NVIC_SetPriority            __NVIC_SetPriority
 585:N:/EECS 473/Myoelectric/myoelectric/Libraries/CMSIS/Include\core_cm0.h ****   #define NVIC_GetPriority            __NVIC_GetPriority
 586:N:/EECS 473/Myoelectric/myoelectric/Libraries/CMSIS/Include\core_cm0.h ****   #define NVIC_SystemReset            __NVIC_SystemReset
 587:N:/EECS 473/Myoelectric/myoelectric/Libraries/CMSIS/Include\core_cm0.h **** #endif /* CMSIS_NVIC_VIRTUAL */
 588:N:/EECS 473/Myoelectric/myoelectric/Libraries/CMSIS/Include\core_cm0.h **** 
 589:N:/EECS 473/Myoelectric/myoelectric/Libraries/CMSIS/Include\core_cm0.h **** #ifdef CMSIS_VECTAB_VIRTUAL
 590:N:/EECS 473/Myoelectric/myoelectric/Libraries/CMSIS/Include\core_cm0.h ****   #ifndef CMSIS_VECTAB_VIRTUAL_HEADER_FILE
 591:N:/EECS 473/Myoelectric/myoelectric/Libraries/CMSIS/Include\core_cm0.h ****     #define CMSIS_VECTAB_VIRTUAL_HEADER_FILE "cmsis_vectab_virtual.h"
 592:N:/EECS 473/Myoelectric/myoelectric/Libraries/CMSIS/Include\core_cm0.h ****   #endif
 593:N:/EECS 473/Myoelectric/myoelectric/Libraries/CMSIS/Include\core_cm0.h ****   #include CMSIS_VECTAB_VIRTUAL_HEADER_FILE
 594:N:/EECS 473/Myoelectric/myoelectric/Libraries/CMSIS/Include\core_cm0.h **** #else
 595:N:/EECS 473/Myoelectric/myoelectric/Libraries/CMSIS/Include\core_cm0.h ****   #define NVIC_SetVector              __NVIC_SetVector
 596:N:/EECS 473/Myoelectric/myoelectric/Libraries/CMSIS/Include\core_cm0.h ****   #define NVIC_GetVector              __NVIC_GetVector
 597:N:/EECS 473/Myoelectric/myoelectric/Libraries/CMSIS/Include\core_cm0.h **** #endif  /* (CMSIS_VECTAB_VIRTUAL) */
 598:N:/EECS 473/Myoelectric/myoelectric/Libraries/CMSIS/Include\core_cm0.h **** 
 599:N:/EECS 473/Myoelectric/myoelectric/Libraries/CMSIS/Include\core_cm0.h **** #define NVIC_USER_IRQ_OFFSET          16
 600:N:/EECS 473/Myoelectric/myoelectric/Libraries/CMSIS/Include\core_cm0.h **** 
 601:N:/EECS 473/Myoelectric/myoelectric/Libraries/CMSIS/Include\core_cm0.h **** 
 602:N:/EECS 473/Myoelectric/myoelectric/Libraries/CMSIS/Include\core_cm0.h **** /* The following EXC_RETURN values are saved the LR on exception entry */
 603:N:/EECS 473/Myoelectric/myoelectric/Libraries/CMSIS/Include\core_cm0.h **** #define EXC_RETURN_HANDLER         (0xFFFFFFF1UL)     /* return to Handler mode, uses MSP after ret
 604:N:/EECS 473/Myoelectric/myoelectric/Libraries/CMSIS/Include\core_cm0.h **** #define EXC_RETURN_THREAD_MSP      (0xFFFFFFF9UL)     /* return to Thread mode, uses MSP after retu
 605:N:/EECS 473/Myoelectric/myoelectric/Libraries/CMSIS/Include\core_cm0.h **** #define EXC_RETURN_THREAD_PSP      (0xFFFFFFFDUL)     /* return to Thread mode, uses PSP after retu
 606:N:/EECS 473/Myoelectric/myoelectric/Libraries/CMSIS/Include\core_cm0.h **** 
 607:N:/EECS 473/Myoelectric/myoelectric/Libraries/CMSIS/Include\core_cm0.h **** 
 608:N:/EECS 473/Myoelectric/myoelectric/Libraries/CMSIS/Include\core_cm0.h **** /* Interrupt Priorities are WORD accessible only under Armv6-M                  */
 609:N:/EECS 473/Myoelectric/myoelectric/Libraries/CMSIS/Include\core_cm0.h **** /* The following MACROS handle generation of the register offset and byte masks */
 610:N:/EECS 473/Myoelectric/myoelectric/Libraries/CMSIS/Include\core_cm0.h **** #define _BIT_SHIFT(IRQn)         (  ((((uint32_t)(int32_t)(IRQn))         )      &  0x03UL) * 8UL)
 611:N:/EECS 473/Myoelectric/myoelectric/Libraries/CMSIS/Include\core_cm0.h **** #define _SHP_IDX(IRQn)           ( (((((uint32_t)(int32_t)(IRQn)) & 0x0FUL)-8UL) >>    2UL)      )
 612:N:/EECS 473/Myoelectric/myoelectric/Libraries/CMSIS/Include\core_cm0.h **** #define _IP_IDX(IRQn)            (   (((uint32_t)(int32_t)(IRQn))                >>    2UL)      )
 613:N:/EECS 473/Myoelectric/myoelectric/Libraries/CMSIS/Include\core_cm0.h **** 
 614:N:/EECS 473/Myoelectric/myoelectric/Libraries/CMSIS/Include\core_cm0.h **** #define __NVIC_SetPriorityGrouping(X) (void)(X)
 615:N:/EECS 473/Myoelectric/myoelectric/Libraries/CMSIS/Include\core_cm0.h **** #define __NVIC_GetPriorityGrouping()  (0U)
 616:N:/EECS 473/Myoelectric/myoelectric/Libraries/CMSIS/Include\core_cm0.h **** 
 617:N:/EECS 473/Myoelectric/myoelectric/Libraries/CMSIS/Include\core_cm0.h **** /**
 618:N:/EECS 473/Myoelectric/myoelectric/Libraries/CMSIS/Include\core_cm0.h ****   \brief   Enable Interrupt
 619:N:/EECS 473/Myoelectric/myoelectric/Libraries/CMSIS/Include\core_cm0.h ****   \details Enables a device specific interrupt in the NVIC interrupt controller.
 620:N:/EECS 473/Myoelectric/myoelectric/Libraries/CMSIS/Include\core_cm0.h ****   \param [in]      IRQn  Device specific interrupt number.
 621:N:/EECS 473/Myoelectric/myoelectric/Libraries/CMSIS/Include\core_cm0.h ****   \note    IRQn must not be negative.
 622:N:/EECS 473/Myoelectric/myoelectric/Libraries/CMSIS/Include\core_cm0.h ****  */
 623:N:/EECS 473/Myoelectric/myoelectric/Libraries/CMSIS/Include\core_cm0.h **** __STATIC_INLINE void __NVIC_EnableIRQ(IRQn_Type IRQn)
 624:N:/EECS 473/Myoelectric/myoelectric/Libraries/CMSIS/Include\core_cm0.h **** {
  25              	 .loc 1 624 0
  26              	 .cfi_startproc
  27 0000 80B5     	 push {r7,lr}
  28              	.LCFI0:
  29              	 .cfi_def_cfa_offset 8
  30              	 .cfi_offset 7,-8
  31              	 .cfi_offset 14,-4
  32 0002 82B0     	 sub sp,sp,#8
  33              	.LCFI1:
  34              	 .cfi_def_cfa_offset 16
  35 0004 00AF     	 add r7,sp,#0
  36              	.LCFI2:
  37              	 .cfi_def_cfa_register 7
  38 0006 021C     	 mov r2,r0
  39 0008 FB1D     	 add r3,r7,#7
  40 000a 1A70     	 strb r2,[r3]
 625:N:/EECS 473/Myoelectric/myoelectric/Libraries/CMSIS/Include\core_cm0.h ****   if ((int32_t)(IRQn) >= 0)
  41              	 .loc 1 625 0
  42 000c FB1D     	 add r3,r7,#7
  43 000e 1B78     	 ldrb r3,[r3]
  44 0010 7F2B     	 cmp r3,#127
  45 0012 09D8     	 bhi .L1
 626:N:/EECS 473/Myoelectric/myoelectric/Libraries/CMSIS/Include\core_cm0.h ****   {
 627:N:/EECS 473/Myoelectric/myoelectric/Libraries/CMSIS/Include\core_cm0.h ****     NVIC->ISER[0U] = (uint32_t)(1UL << (((uint32_t)IRQn) & 0x1FUL));
  46              	 .loc 1 627 0
  47 0014 064B     	 ldr r3,.L3
  48 0016 FA1D     	 add r2,r7,#7
  49 0018 1278     	 ldrb r2,[r2]
  50 001a 111C     	 mov r1,r2
  51 001c 1F22     	 mov r2,#31
  52 001e 0A40     	 and r2,r1
  53 0020 0121     	 mov r1,#1
  54 0022 9140     	 lsl r1,r1,r2
  55 0024 0A1C     	 mov r2,r1
  56 0026 1A60     	 str r2,[r3]
  57              	.L1:
 628:N:/EECS 473/Myoelectric/myoelectric/Libraries/CMSIS/Include\core_cm0.h ****   }
 629:N:/EECS 473/Myoelectric/myoelectric/Libraries/CMSIS/Include\core_cm0.h **** }
  58              	 .loc 1 629 0
  59 0028 BD46     	 mov sp,r7
  60 002a 02B0     	 add sp,sp,#8
  61              	 
  62 002c 80BD     	 pop {r7,pc}
  63              	.L4:
  64 002e C046     	 .align 2
  65              	.L3:
  66 0030 00E100E0 	 .word -536813312
  67              	 .cfi_endproc
  68              	.LFE25:
  70              	 .section .text.__NVIC_SetPriority,"ax",%progbits
  71              	 .align 2
  72              	 .code 16
  73              	 .thumb_func
  75              	__NVIC_SetPriority:
  76              	.LFB31:
 630:N:/EECS 473/Myoelectric/myoelectric/Libraries/CMSIS/Include\core_cm0.h **** 
 631:N:/EECS 473/Myoelectric/myoelectric/Libraries/CMSIS/Include\core_cm0.h **** 
 632:N:/EECS 473/Myoelectric/myoelectric/Libraries/CMSIS/Include\core_cm0.h **** /**
 633:N:/EECS 473/Myoelectric/myoelectric/Libraries/CMSIS/Include\core_cm0.h ****   \brief   Get Interrupt Enable status
 634:N:/EECS 473/Myoelectric/myoelectric/Libraries/CMSIS/Include\core_cm0.h ****   \details Returns a device specific interrupt enable status from the NVIC interrupt controller.
 635:N:/EECS 473/Myoelectric/myoelectric/Libraries/CMSIS/Include\core_cm0.h ****   \param [in]      IRQn  Device specific interrupt number.
 636:N:/EECS 473/Myoelectric/myoelectric/Libraries/CMSIS/Include\core_cm0.h ****   \return             0  Interrupt is not enabled.
 637:N:/EECS 473/Myoelectric/myoelectric/Libraries/CMSIS/Include\core_cm0.h ****   \return             1  Interrupt is enabled.
 638:N:/EECS 473/Myoelectric/myoelectric/Libraries/CMSIS/Include\core_cm0.h ****   \note    IRQn must not be negative.
 639:N:/EECS 473/Myoelectric/myoelectric/Libraries/CMSIS/Include\core_cm0.h ****  */
 640:N:/EECS 473/Myoelectric/myoelectric/Libraries/CMSIS/Include\core_cm0.h **** __STATIC_INLINE uint32_t __NVIC_GetEnableIRQ(IRQn_Type IRQn)
 641:N:/EECS 473/Myoelectric/myoelectric/Libraries/CMSIS/Include\core_cm0.h **** {
 642:N:/EECS 473/Myoelectric/myoelectric/Libraries/CMSIS/Include\core_cm0.h ****   if ((int32_t)(IRQn) >= 0)
 643:N:/EECS 473/Myoelectric/myoelectric/Libraries/CMSIS/Include\core_cm0.h ****   {
 644:N:/EECS 473/Myoelectric/myoelectric/Libraries/CMSIS/Include\core_cm0.h ****     return((uint32_t)(((NVIC->ISER[0U] & (1UL << (((uint32_t)IRQn) & 0x1FUL))) != 0UL) ? 1UL : 0UL)
 645:N:/EECS 473/Myoelectric/myoelectric/Libraries/CMSIS/Include\core_cm0.h ****   }
 646:N:/EECS 473/Myoelectric/myoelectric/Libraries/CMSIS/Include\core_cm0.h ****   else
 647:N:/EECS 473/Myoelectric/myoelectric/Libraries/CMSIS/Include\core_cm0.h ****   {
 648:N:/EECS 473/Myoelectric/myoelectric/Libraries/CMSIS/Include\core_cm0.h ****     return(0U);
 649:N:/EECS 473/Myoelectric/myoelectric/Libraries/CMSIS/Include\core_cm0.h ****   }
 650:N:/EECS 473/Myoelectric/myoelectric/Libraries/CMSIS/Include\core_cm0.h **** }
 651:N:/EECS 473/Myoelectric/myoelectric/Libraries/CMSIS/Include\core_cm0.h **** 
 652:N:/EECS 473/Myoelectric/myoelectric/Libraries/CMSIS/Include\core_cm0.h **** 
 653:N:/EECS 473/Myoelectric/myoelectric/Libraries/CMSIS/Include\core_cm0.h **** /**
 654:N:/EECS 473/Myoelectric/myoelectric/Libraries/CMSIS/Include\core_cm0.h ****   \brief   Disable Interrupt
 655:N:/EECS 473/Myoelectric/myoelectric/Libraries/CMSIS/Include\core_cm0.h ****   \details Disables a device specific interrupt in the NVIC interrupt controller.
 656:N:/EECS 473/Myoelectric/myoelectric/Libraries/CMSIS/Include\core_cm0.h ****   \param [in]      IRQn  Device specific interrupt number.
 657:N:/EECS 473/Myoelectric/myoelectric/Libraries/CMSIS/Include\core_cm0.h ****   \note    IRQn must not be negative.
 658:N:/EECS 473/Myoelectric/myoelectric/Libraries/CMSIS/Include\core_cm0.h ****  */
 659:N:/EECS 473/Myoelectric/myoelectric/Libraries/CMSIS/Include\core_cm0.h **** __STATIC_INLINE void __NVIC_DisableIRQ(IRQn_Type IRQn)
 660:N:/EECS 473/Myoelectric/myoelectric/Libraries/CMSIS/Include\core_cm0.h **** {
 661:N:/EECS 473/Myoelectric/myoelectric/Libraries/CMSIS/Include\core_cm0.h ****   if ((int32_t)(IRQn) >= 0)
 662:N:/EECS 473/Myoelectric/myoelectric/Libraries/CMSIS/Include\core_cm0.h ****   {
 663:N:/EECS 473/Myoelectric/myoelectric/Libraries/CMSIS/Include\core_cm0.h ****     NVIC->ICER[0U] = (uint32_t)(1UL << (((uint32_t)IRQn) & 0x1FUL));
 664:N:/EECS 473/Myoelectric/myoelectric/Libraries/CMSIS/Include\core_cm0.h ****     __DSB();
 665:N:/EECS 473/Myoelectric/myoelectric/Libraries/CMSIS/Include\core_cm0.h ****     __ISB();
 666:N:/EECS 473/Myoelectric/myoelectric/Libraries/CMSIS/Include\core_cm0.h ****   }
 667:N:/EECS 473/Myoelectric/myoelectric/Libraries/CMSIS/Include\core_cm0.h **** }
 668:N:/EECS 473/Myoelectric/myoelectric/Libraries/CMSIS/Include\core_cm0.h **** 
 669:N:/EECS 473/Myoelectric/myoelectric/Libraries/CMSIS/Include\core_cm0.h **** 
 670:N:/EECS 473/Myoelectric/myoelectric/Libraries/CMSIS/Include\core_cm0.h **** /**
 671:N:/EECS 473/Myoelectric/myoelectric/Libraries/CMSIS/Include\core_cm0.h ****   \brief   Get Pending Interrupt
 672:N:/EECS 473/Myoelectric/myoelectric/Libraries/CMSIS/Include\core_cm0.h ****   \details Reads the NVIC pending register and returns the pending bit for the specified device spe
 673:N:/EECS 473/Myoelectric/myoelectric/Libraries/CMSIS/Include\core_cm0.h ****   \param [in]      IRQn  Device specific interrupt number.
 674:N:/EECS 473/Myoelectric/myoelectric/Libraries/CMSIS/Include\core_cm0.h ****   \return             0  Interrupt status is not pending.
 675:N:/EECS 473/Myoelectric/myoelectric/Libraries/CMSIS/Include\core_cm0.h ****   \return             1  Interrupt status is pending.
 676:N:/EECS 473/Myoelectric/myoelectric/Libraries/CMSIS/Include\core_cm0.h ****   \note    IRQn must not be negative.
 677:N:/EECS 473/Myoelectric/myoelectric/Libraries/CMSIS/Include\core_cm0.h ****  */
 678:N:/EECS 473/Myoelectric/myoelectric/Libraries/CMSIS/Include\core_cm0.h **** __STATIC_INLINE uint32_t __NVIC_GetPendingIRQ(IRQn_Type IRQn)
 679:N:/EECS 473/Myoelectric/myoelectric/Libraries/CMSIS/Include\core_cm0.h **** {
 680:N:/EECS 473/Myoelectric/myoelectric/Libraries/CMSIS/Include\core_cm0.h ****   if ((int32_t)(IRQn) >= 0)
 681:N:/EECS 473/Myoelectric/myoelectric/Libraries/CMSIS/Include\core_cm0.h ****   {
 682:N:/EECS 473/Myoelectric/myoelectric/Libraries/CMSIS/Include\core_cm0.h ****     return((uint32_t)(((NVIC->ISPR[0U] & (1UL << (((uint32_t)IRQn) & 0x1FUL))) != 0UL) ? 1UL : 0UL)
 683:N:/EECS 473/Myoelectric/myoelectric/Libraries/CMSIS/Include\core_cm0.h ****   }
 684:N:/EECS 473/Myoelectric/myoelectric/Libraries/CMSIS/Include\core_cm0.h ****   else
 685:N:/EECS 473/Myoelectric/myoelectric/Libraries/CMSIS/Include\core_cm0.h ****   {
 686:N:/EECS 473/Myoelectric/myoelectric/Libraries/CMSIS/Include\core_cm0.h ****     return(0U);
 687:N:/EECS 473/Myoelectric/myoelectric/Libraries/CMSIS/Include\core_cm0.h ****   }
 688:N:/EECS 473/Myoelectric/myoelectric/Libraries/CMSIS/Include\core_cm0.h **** }
 689:N:/EECS 473/Myoelectric/myoelectric/Libraries/CMSIS/Include\core_cm0.h **** 
 690:N:/EECS 473/Myoelectric/myoelectric/Libraries/CMSIS/Include\core_cm0.h **** 
 691:N:/EECS 473/Myoelectric/myoelectric/Libraries/CMSIS/Include\core_cm0.h **** /**
 692:N:/EECS 473/Myoelectric/myoelectric/Libraries/CMSIS/Include\core_cm0.h ****   \brief   Set Pending Interrupt
 693:N:/EECS 473/Myoelectric/myoelectric/Libraries/CMSIS/Include\core_cm0.h ****   \details Sets the pending bit of a device specific interrupt in the NVIC pending register.
 694:N:/EECS 473/Myoelectric/myoelectric/Libraries/CMSIS/Include\core_cm0.h ****   \param [in]      IRQn  Device specific interrupt number.
 695:N:/EECS 473/Myoelectric/myoelectric/Libraries/CMSIS/Include\core_cm0.h ****   \note    IRQn must not be negative.
 696:N:/EECS 473/Myoelectric/myoelectric/Libraries/CMSIS/Include\core_cm0.h ****  */
 697:N:/EECS 473/Myoelectric/myoelectric/Libraries/CMSIS/Include\core_cm0.h **** __STATIC_INLINE void __NVIC_SetPendingIRQ(IRQn_Type IRQn)
 698:N:/EECS 473/Myoelectric/myoelectric/Libraries/CMSIS/Include\core_cm0.h **** {
 699:N:/EECS 473/Myoelectric/myoelectric/Libraries/CMSIS/Include\core_cm0.h ****   if ((int32_t)(IRQn) >= 0)
 700:N:/EECS 473/Myoelectric/myoelectric/Libraries/CMSIS/Include\core_cm0.h ****   {
 701:N:/EECS 473/Myoelectric/myoelectric/Libraries/CMSIS/Include\core_cm0.h ****     NVIC->ISPR[0U] = (uint32_t)(1UL << (((uint32_t)IRQn) & 0x1FUL));
 702:N:/EECS 473/Myoelectric/myoelectric/Libraries/CMSIS/Include\core_cm0.h ****   }
 703:N:/EECS 473/Myoelectric/myoelectric/Libraries/CMSIS/Include\core_cm0.h **** }
 704:N:/EECS 473/Myoelectric/myoelectric/Libraries/CMSIS/Include\core_cm0.h **** 
 705:N:/EECS 473/Myoelectric/myoelectric/Libraries/CMSIS/Include\core_cm0.h **** 
 706:N:/EECS 473/Myoelectric/myoelectric/Libraries/CMSIS/Include\core_cm0.h **** /**
 707:N:/EECS 473/Myoelectric/myoelectric/Libraries/CMSIS/Include\core_cm0.h ****   \brief   Clear Pending Interrupt
 708:N:/EECS 473/Myoelectric/myoelectric/Libraries/CMSIS/Include\core_cm0.h ****   \details Clears the pending bit of a device specific interrupt in the NVIC pending register.
 709:N:/EECS 473/Myoelectric/myoelectric/Libraries/CMSIS/Include\core_cm0.h ****   \param [in]      IRQn  Device specific interrupt number.
 710:N:/EECS 473/Myoelectric/myoelectric/Libraries/CMSIS/Include\core_cm0.h ****   \note    IRQn must not be negative.
 711:N:/EECS 473/Myoelectric/myoelectric/Libraries/CMSIS/Include\core_cm0.h ****  */
 712:N:/EECS 473/Myoelectric/myoelectric/Libraries/CMSIS/Include\core_cm0.h **** __STATIC_INLINE void __NVIC_ClearPendingIRQ(IRQn_Type IRQn)
 713:N:/EECS 473/Myoelectric/myoelectric/Libraries/CMSIS/Include\core_cm0.h **** {
 714:N:/EECS 473/Myoelectric/myoelectric/Libraries/CMSIS/Include\core_cm0.h ****   if ((int32_t)(IRQn) >= 0)
 715:N:/EECS 473/Myoelectric/myoelectric/Libraries/CMSIS/Include\core_cm0.h ****   {
 716:N:/EECS 473/Myoelectric/myoelectric/Libraries/CMSIS/Include\core_cm0.h ****     NVIC->ICPR[0U] = (uint32_t)(1UL << (((uint32_t)IRQn) & 0x1FUL));
 717:N:/EECS 473/Myoelectric/myoelectric/Libraries/CMSIS/Include\core_cm0.h ****   }
 718:N:/EECS 473/Myoelectric/myoelectric/Libraries/CMSIS/Include\core_cm0.h **** }
 719:N:/EECS 473/Myoelectric/myoelectric/Libraries/CMSIS/Include\core_cm0.h **** 
 720:N:/EECS 473/Myoelectric/myoelectric/Libraries/CMSIS/Include\core_cm0.h **** 
 721:N:/EECS 473/Myoelectric/myoelectric/Libraries/CMSIS/Include\core_cm0.h **** /**
 722:N:/EECS 473/Myoelectric/myoelectric/Libraries/CMSIS/Include\core_cm0.h ****   \brief   Set Interrupt Priority
 723:N:/EECS 473/Myoelectric/myoelectric/Libraries/CMSIS/Include\core_cm0.h ****   \details Sets the priority of a device specific interrupt or a processor exception.
 724:N:/EECS 473/Myoelectric/myoelectric/Libraries/CMSIS/Include\core_cm0.h ****            The interrupt number can be positive to specify a device specific interrupt,
 725:N:/EECS 473/Myoelectric/myoelectric/Libraries/CMSIS/Include\core_cm0.h ****            or negative to specify a processor exception.
 726:N:/EECS 473/Myoelectric/myoelectric/Libraries/CMSIS/Include\core_cm0.h ****   \param [in]      IRQn  Interrupt number.
 727:N:/EECS 473/Myoelectric/myoelectric/Libraries/CMSIS/Include\core_cm0.h ****   \param [in]  priority  Priority to set.
 728:N:/EECS 473/Myoelectric/myoelectric/Libraries/CMSIS/Include\core_cm0.h ****   \note    The priority cannot be set for every processor exception.
 729:N:/EECS 473/Myoelectric/myoelectric/Libraries/CMSIS/Include\core_cm0.h ****  */
 730:N:/EECS 473/Myoelectric/myoelectric/Libraries/CMSIS/Include\core_cm0.h **** __STATIC_INLINE void __NVIC_SetPriority(IRQn_Type IRQn, uint32_t priority)
 731:N:/EECS 473/Myoelectric/myoelectric/Libraries/CMSIS/Include\core_cm0.h **** {
  77              	 .loc 1 731 0
  78              	 .cfi_startproc
  79 0000 B0B5     	 push {r4,r5,r7,lr}
  80              	.LCFI3:
  81              	 .cfi_def_cfa_offset 16
  82              	 .cfi_offset 4,-16
  83              	 .cfi_offset 5,-12
  84              	 .cfi_offset 7,-8
  85              	 .cfi_offset 14,-4
  86 0002 82B0     	 sub sp,sp,#8
  87              	.LCFI4:
  88              	 .cfi_def_cfa_offset 24
  89 0004 00AF     	 add r7,sp,#0
  90              	.LCFI5:
  91              	 .cfi_def_cfa_register 7
  92 0006 021C     	 mov r2,r0
  93 0008 3960     	 str r1,[r7]
  94 000a FB1D     	 add r3,r7,#7
  95 000c 1A70     	 strb r2,[r3]
 732:N:/EECS 473/Myoelectric/myoelectric/Libraries/CMSIS/Include\core_cm0.h ****   if ((int32_t)(IRQn) >= 0)
  96              	 .loc 1 732 0
  97 000e FB1D     	 add r3,r7,#7
  98 0010 1B78     	 ldrb r3,[r3]
  99 0012 7F2B     	 cmp r3,#127
 100 0014 27D8     	 bhi .L6
 733:N:/EECS 473/Myoelectric/myoelectric/Libraries/CMSIS/Include\core_cm0.h ****   {
 734:N:/EECS 473/Myoelectric/myoelectric/Libraries/CMSIS/Include\core_cm0.h ****     NVIC->IP[_IP_IDX(IRQn)]  = ((uint32_t)(NVIC->IP[_IP_IDX(IRQn)]  & ~(0xFFUL << _BIT_SHIFT(IRQn))
 101              	 .loc 1 734 0
 102 0016 2D4C     	 ldr r4,.L8
 103 0018 FB1D     	 add r3,r7,#7
 104 001a 1B78     	 ldrb r3,[r3]
 105 001c 5BB2     	 sxtb r3,r3
 106 001e 9B08     	 lsr r3,r3,#2
 107 0020 2A49     	 ldr r1,.L8
 108 0022 FA1D     	 add r2,r7,#7
 109 0024 1278     	 ldrb r2,[r2]
 110 0026 52B2     	 sxtb r2,r2
 111 0028 9208     	 lsr r2,r2,#2
 112 002a C032     	 add r2,r2,#192
 113 002c 9200     	 lsl r2,r2,#2
 114 002e 5258     	 ldr r2,[r2,r1]
 115 0030 F91D     	 add r1,r7,#7
 116 0032 0978     	 ldrb r1,[r1]
 117 0034 081C     	 mov r0,r1
 118 0036 0321     	 mov r1,#3
 119 0038 0140     	 and r1,r0
 120 003a C900     	 lsl r1,r1,#3
 121 003c 081C     	 mov r0,r1
 122 003e FF21     	 mov r1,#255
 123 0040 8140     	 lsl r1,r1,r0
 124 0042 C943     	 mvn r1,r1
 125 0044 1140     	 and r1,r2
 735:N:/EECS 473/Myoelectric/myoelectric/Libraries/CMSIS/Include\core_cm0.h ****        (((priority << (8U - __NVIC_PRIO_BITS)) & (uint32_t)0xFFUL) << _BIT_SHIFT(IRQn)));
 126              	 .loc 1 735 0
 127 0046 3A68     	 ldr r2,[r7]
 128 0048 9201     	 lsl r2,r2,#6
 129 004a FF20     	 mov r0,#255
 130 004c 0240     	 and r2,r0
 131 004e F81D     	 add r0,r7,#7
 132 0050 0078     	 ldrb r0,[r0]
 133 0052 051C     	 mov r5,r0
 134 0054 0320     	 mov r0,#3
 135 0056 2840     	 and r0,r5
 136 0058 C000     	 lsl r0,r0,#3
 137 005a 8240     	 lsl r2,r2,r0
 734:N:/EECS 473/Myoelectric/myoelectric/Libraries/CMSIS/Include\core_cm0.h ****        (((priority << (8U - __NVIC_PRIO_BITS)) & (uint32_t)0xFFUL) << _BIT_SHIFT(IRQn)));
 138              	 .loc 1 734 0
 139 005c 0A43     	 orr r2,r1
 140 005e C033     	 add r3,r3,#192
 141 0060 9B00     	 lsl r3,r3,#2
 142 0062 1A51     	 str r2,[r3,r4]
 143 0064 2EE0     	 b .L5
 144              	.L6:
 736:N:/EECS 473/Myoelectric/myoelectric/Libraries/CMSIS/Include\core_cm0.h ****   }
 737:N:/EECS 473/Myoelectric/myoelectric/Libraries/CMSIS/Include\core_cm0.h ****   else
 738:N:/EECS 473/Myoelectric/myoelectric/Libraries/CMSIS/Include\core_cm0.h ****   {
 739:N:/EECS 473/Myoelectric/myoelectric/Libraries/CMSIS/Include\core_cm0.h ****     SCB->SHP[_SHP_IDX(IRQn)] = ((uint32_t)(SCB->SHP[_SHP_IDX(IRQn)] & ~(0xFFUL << _BIT_SHIFT(IRQn))
 145              	 .loc 1 739 0
 146 0066 1A4C     	 ldr r4,.L8+4
 147 0068 FB1D     	 add r3,r7,#7
 148 006a 1B78     	 ldrb r3,[r3]
 149 006c 1A1C     	 mov r2,r3
 150 006e 0F23     	 mov r3,#15
 151 0070 1340     	 and r3,r2
 152 0072 083B     	 sub r3,r3,#8
 153 0074 9908     	 lsr r1,r3,#2
 154 0076 164A     	 ldr r2,.L8+4
 155 0078 FB1D     	 add r3,r7,#7
 156 007a 1B78     	 ldrb r3,[r3]
 157 007c 181C     	 mov r0,r3
 158 007e 0F23     	 mov r3,#15
 159 0080 0340     	 and r3,r0
 160 0082 083B     	 sub r3,r3,#8
 161 0084 9B08     	 lsr r3,r3,#2
 162 0086 0633     	 add r3,r3,#6
 163 0088 9B00     	 lsl r3,r3,#2
 164 008a D318     	 add r3,r2,r3
 165 008c 5B68     	 ldr r3,[r3,#4]
 166 008e FA1D     	 add r2,r7,#7
 167 0090 1278     	 ldrb r2,[r2]
 168 0092 101C     	 mov r0,r2
 169 0094 0322     	 mov r2,#3
 170 0096 0240     	 and r2,r0
 171 0098 D200     	 lsl r2,r2,#3
 172 009a 101C     	 mov r0,r2
 173 009c FF22     	 mov r2,#255
 174 009e 8240     	 lsl r2,r2,r0
 175 00a0 D243     	 mvn r2,r2
 176 00a2 1A40     	 and r2,r3
 740:N:/EECS 473/Myoelectric/myoelectric/Libraries/CMSIS/Include\core_cm0.h ****        (((priority << (8U - __NVIC_PRIO_BITS)) & (uint32_t)0xFFUL) << _BIT_SHIFT(IRQn)));
 177              	 .loc 1 740 0
 178 00a4 3B68     	 ldr r3,[r7]
 179 00a6 9B01     	 lsl r3,r3,#6
 180 00a8 FF20     	 mov r0,#255
 181 00aa 0340     	 and r3,r0
 182 00ac F81D     	 add r0,r7,#7
 183 00ae 0078     	 ldrb r0,[r0]
 184 00b0 051C     	 mov r5,r0
 185 00b2 0320     	 mov r0,#3
 186 00b4 2840     	 and r0,r5
 187 00b6 C000     	 lsl r0,r0,#3
 188 00b8 8340     	 lsl r3,r3,r0
 739:N:/EECS 473/Myoelectric/myoelectric/Libraries/CMSIS/Include\core_cm0.h ****        (((priority << (8U - __NVIC_PRIO_BITS)) & (uint32_t)0xFFUL) << _BIT_SHIFT(IRQn)));
 189              	 .loc 1 739 0
 190 00ba 1A43     	 orr r2,r3
 191 00bc 8B1D     	 add r3,r1,#6
 192 00be 9B00     	 lsl r3,r3,#2
 193 00c0 E318     	 add r3,r4,r3
 194 00c2 5A60     	 str r2,[r3,#4]
 195              	.L5:
 741:N:/EECS 473/Myoelectric/myoelectric/Libraries/CMSIS/Include\core_cm0.h ****   }
 742:N:/EECS 473/Myoelectric/myoelectric/Libraries/CMSIS/Include\core_cm0.h **** }
 196              	 .loc 1 742 0
 197 00c4 BD46     	 mov sp,r7
 198 00c6 02B0     	 add sp,sp,#8
 199              	 
 200 00c8 B0BD     	 pop {r4,r5,r7,pc}
 201              	.L9:
 202 00ca C046     	 .align 2
 203              	.L8:
 204 00cc 00E100E0 	 .word -536813312
 205 00d0 00ED00E0 	 .word -536810240
 206              	 .cfi_endproc
 207              	.LFE31:
 209              	 .section .text.XMC_VADC_GLOBAL_BackgroundTriggerConversion,"ax",%progbits
 210              	 .align 2
 211              	 .code 16
 212              	 .thumb_func
 214              	XMC_VADC_GLOBAL_BackgroundTriggerConversion:
 215              	.LFB113:
 216              	 .file 2 "N:/EECS 473/Myoelectric/myoelectric/Libraries/XMCLib/inc/xmc_vadc.h"
   1:N:/EECS 473/Myoelectric/myoelectric/Libraries/XMCLib/inc\xmc_vadc.h **** /**
   2:N:/EECS 473/Myoelectric/myoelectric/Libraries/XMCLib/inc\xmc_vadc.h ****  * @file xmc_vadc.h
   3:N:/EECS 473/Myoelectric/myoelectric/Libraries/XMCLib/inc\xmc_vadc.h ****  * @date 2017-08-14
   4:N:/EECS 473/Myoelectric/myoelectric/Libraries/XMCLib/inc\xmc_vadc.h ****  *
   5:N:/EECS 473/Myoelectric/myoelectric/Libraries/XMCLib/inc\xmc_vadc.h ****  * @cond
   6:N:/EECS 473/Myoelectric/myoelectric/Libraries/XMCLib/inc\xmc_vadc.h ****  **************************************************************************************************
   7:N:/EECS 473/Myoelectric/myoelectric/Libraries/XMCLib/inc\xmc_vadc.h ****  * XMClib v2.1.20 - XMC Peripheral Driver Library 
   8:N:/EECS 473/Myoelectric/myoelectric/Libraries/XMCLib/inc\xmc_vadc.h ****  *
   9:N:/EECS 473/Myoelectric/myoelectric/Libraries/XMCLib/inc\xmc_vadc.h ****  * Copyright (c) 2015-2018, Infineon Technologies AG
  10:N:/EECS 473/Myoelectric/myoelectric/Libraries/XMCLib/inc\xmc_vadc.h ****  * All rights reserved.                        
  11:N:/EECS 473/Myoelectric/myoelectric/Libraries/XMCLib/inc\xmc_vadc.h ****  *                                             
  12:N:/EECS 473/Myoelectric/myoelectric/Libraries/XMCLib/inc\xmc_vadc.h ****  * Redistribution and use in source and binary forms, with or without modification,are permitted pr
  13:N:/EECS 473/Myoelectric/myoelectric/Libraries/XMCLib/inc\xmc_vadc.h ****  * following conditions are met:   
  14:N:/EECS 473/Myoelectric/myoelectric/Libraries/XMCLib/inc\xmc_vadc.h ****  *                                                                              
  15:N:/EECS 473/Myoelectric/myoelectric/Libraries/XMCLib/inc\xmc_vadc.h ****  * Redistributions of source code must retain the above copyright notice, this list of conditions a
  16:N:/EECS 473/Myoelectric/myoelectric/Libraries/XMCLib/inc\xmc_vadc.h ****  * disclaimer.                        
  17:N:/EECS 473/Myoelectric/myoelectric/Libraries/XMCLib/inc\xmc_vadc.h ****  * 
  18:N:/EECS 473/Myoelectric/myoelectric/Libraries/XMCLib/inc\xmc_vadc.h ****  * Redistributions in binary form must reproduce the above copyright notice, this list of condition
  19:N:/EECS 473/Myoelectric/myoelectric/Libraries/XMCLib/inc\xmc_vadc.h ****  * disclaimer in the documentation and/or other materials provided with the distribution.          
  20:N:/EECS 473/Myoelectric/myoelectric/Libraries/XMCLib/inc\xmc_vadc.h ****  * 
  21:N:/EECS 473/Myoelectric/myoelectric/Libraries/XMCLib/inc\xmc_vadc.h ****  * Neither the name of the copyright holders nor the names of its contributors may be used to endor
  22:N:/EECS 473/Myoelectric/myoelectric/Libraries/XMCLib/inc\xmc_vadc.h ****  * products derived from this software without specific prior written permission.                  
  23:N:/EECS 473/Myoelectric/myoelectric/Libraries/XMCLib/inc\xmc_vadc.h ****  *                                                                              
  24:N:/EECS 473/Myoelectric/myoelectric/Libraries/XMCLib/inc\xmc_vadc.h ****  * THIS SOFTWARE IS PROVIDED BY THE COPYRIGHT HOLDERS AND CONTRIBUTORS "AS IS" AND ANY EXPRESS OR I
  25:N:/EECS 473/Myoelectric/myoelectric/Libraries/XMCLib/inc\xmc_vadc.h ****  * INCLUDING, BUT NOT LIMITED TO, THE IMPLIED WARRANTIES OF MERCHANTABILITY AND FITNESS FOR A PARTI
  26:N:/EECS 473/Myoelectric/myoelectric/Libraries/XMCLib/inc\xmc_vadc.h ****  * DISCLAIMED. IN NO EVENT SHALL THE COPYRIGHT HOLDER OR CONTRIBUTORS BE LIABLE  FOR ANY DIRECT, IN
  27:N:/EECS 473/Myoelectric/myoelectric/Libraries/XMCLib/inc\xmc_vadc.h ****  * SPECIAL, EXEMPLARY, OR CONSEQUENTIAL DAMAGES (INCLUDING, BUT NOT LIMITED TO, PROCUREMENT OF SUBS
  28:N:/EECS 473/Myoelectric/myoelectric/Libraries/XMCLib/inc\xmc_vadc.h ****  * SERVICES; LOSS OF USE, DATA, OR PROFITS; OR BUSINESS INTERRUPTION) HOWEVER CAUSED AND ON ANY THE
  29:N:/EECS 473/Myoelectric/myoelectric/Libraries/XMCLib/inc\xmc_vadc.h ****  * WHETHER IN CONTRACT, STRICT LIABILITY,OR TORT (INCLUDING NEGLIGENCE OR OTHERWISE) ARISING IN ANY
  30:N:/EECS 473/Myoelectric/myoelectric/Libraries/XMCLib/inc\xmc_vadc.h ****  * OF THIS SOFTWARE, EVEN IF ADVISED OF THE POSSIBILITY OF SUCH DAMAGE.                            
  31:N:/EECS 473/Myoelectric/myoelectric/Libraries/XMCLib/inc\xmc_vadc.h ****  *                                                                              
  32:N:/EECS 473/Myoelectric/myoelectric/Libraries/XMCLib/inc\xmc_vadc.h ****  * To improve the quality of the software, users are encouraged to share modifications, enhancement
  33:N:/EECS 473/Myoelectric/myoelectric/Libraries/XMCLib/inc\xmc_vadc.h ****  * Infineon Technologies AG dave@infineon.com).                                                    
  34:N:/EECS 473/Myoelectric/myoelectric/Libraries/XMCLib/inc\xmc_vadc.h ****  **************************************************************************************************
  35:N:/EECS 473/Myoelectric/myoelectric/Libraries/XMCLib/inc\xmc_vadc.h ****  *
  36:N:/EECS 473/Myoelectric/myoelectric/Libraries/XMCLib/inc\xmc_vadc.h ****  * Change History
  37:N:/EECS 473/Myoelectric/myoelectric/Libraries/XMCLib/inc\xmc_vadc.h ****  * --------------
  38:N:/EECS 473/Myoelectric/myoelectric/Libraries/XMCLib/inc\xmc_vadc.h ****  *
  39:N:/EECS 473/Myoelectric/myoelectric/Libraries/XMCLib/inc\xmc_vadc.h ****  * 2015-02-15:
  40:N:/EECS 473/Myoelectric/myoelectric/Libraries/XMCLib/inc\xmc_vadc.h ****  *     - Initial <br>
  41:N:/EECS 473/Myoelectric/myoelectric/Libraries/XMCLib/inc\xmc_vadc.h ****  *      
  42:N:/EECS 473/Myoelectric/myoelectric/Libraries/XMCLib/inc\xmc_vadc.h ****  * 2015-02-20:
  43:N:/EECS 473/Myoelectric/myoelectric/Libraries/XMCLib/inc\xmc_vadc.h ****  *     - Revised for XMC1201 device.<br>
  44:N:/EECS 473/Myoelectric/myoelectric/Libraries/XMCLib/inc\xmc_vadc.h ****  *   
  45:N:/EECS 473/Myoelectric/myoelectric/Libraries/XMCLib/inc\xmc_vadc.h ****  * 2015-04-27:
  46:N:/EECS 473/Myoelectric/myoelectric/Libraries/XMCLib/inc\xmc_vadc.h ****  *     - Added new APIs for SHS.<br>
  47:N:/EECS 473/Myoelectric/myoelectric/Libraries/XMCLib/inc\xmc_vadc.h ****  *     - Added New APIs for trigger edge selection.<BR>
  48:N:/EECS 473/Myoelectric/myoelectric/Libraries/XMCLib/inc\xmc_vadc.h ****  *     - Added new APIs for Queue flush entries, boundary selection, Boundary node pointer.<BR>
  49:N:/EECS 473/Myoelectric/myoelectric/Libraries/XMCLib/inc\xmc_vadc.h ****  *     - Revised GatingMode APIs and EMUX Control Init API.<BR>
  50:N:/EECS 473/Myoelectric/myoelectric/Libraries/XMCLib/inc\xmc_vadc.h ****  *
  51:N:/EECS 473/Myoelectric/myoelectric/Libraries/XMCLib/inc\xmc_vadc.h ****  * 2015-06-20:
  52:N:/EECS 473/Myoelectric/myoelectric/Libraries/XMCLib/inc\xmc_vadc.h ****  *     - Removed version macros and declaration of GetDriverVersion API
  53:N:/EECS 473/Myoelectric/myoelectric/Libraries/XMCLib/inc\xmc_vadc.h ****  * 2015-06-25:
  54:N:/EECS 473/Myoelectric/myoelectric/Libraries/XMCLib/inc\xmc_vadc.h ****  *     - BFL configuration in channel initialization fixed.
  55:N:/EECS 473/Myoelectric/myoelectric/Libraries/XMCLib/inc\xmc_vadc.h ****  *
  56:N:/EECS 473/Myoelectric/myoelectric/Libraries/XMCLib/inc\xmc_vadc.h ****  * 2015-07-28:
  57:N:/EECS 473/Myoelectric/myoelectric/Libraries/XMCLib/inc\xmc_vadc.h ****  *     - CLOCK_GATING_SUPPORTED and PERIPHERAL_RESET_SUPPORTED macros used
  58:N:/EECS 473/Myoelectric/myoelectric/Libraries/XMCLib/inc\xmc_vadc.h ****  *     - Clubbed the macro definitions for XMC13 XMC12 and XMC14
  59:N:/EECS 473/Myoelectric/myoelectric/Libraries/XMCLib/inc\xmc_vadc.h ****  *     - Clubbed the macro definitions for XMC44 XMC47 and XMC48
  60:N:/EECS 473/Myoelectric/myoelectric/Libraries/XMCLib/inc\xmc_vadc.h ****  *     - New APIs Created.
  61:N:/EECS 473/Myoelectric/myoelectric/Libraries/XMCLib/inc\xmc_vadc.h ****  *           - XMC_VADC_GLOBAL_SetIndividualBoundary
  62:N:/EECS 473/Myoelectric/myoelectric/Libraries/XMCLib/inc\xmc_vadc.h ****  *           - XMC_VADC_GROUP_SetIndividualBoundary
  63:N:/EECS 473/Myoelectric/myoelectric/Libraries/XMCLib/inc\xmc_vadc.h ****  *           - XMC_VADC_GROUP_GetAlias
  64:N:/EECS 473/Myoelectric/myoelectric/Libraries/XMCLib/inc\xmc_vadc.h ****  *           - XMC_VADC_GROUP_GetInputClass
  65:N:/EECS 473/Myoelectric/myoelectric/Libraries/XMCLib/inc\xmc_vadc.h ****  *           - XMC_VADC_GROUP_ChannelSetIclass
  66:N:/EECS 473/Myoelectric/myoelectric/Libraries/XMCLib/inc\xmc_vadc.h ****  *           - XMC_VADC_GROUP_ChannelGetResultAlignment
  67:N:/EECS 473/Myoelectric/myoelectric/Libraries/XMCLib/inc\xmc_vadc.h ****  *           - XMC_VADC_GROUP_ChannelGetInputClass
  68:N:/EECS 473/Myoelectric/myoelectric/Libraries/XMCLib/inc\xmc_vadc.h ****  *           - XMC_VADC_GROUP_SetResultSubtractionValue
  69:N:/EECS 473/Myoelectric/myoelectric/Libraries/XMCLib/inc\xmc_vadc.h ****  *
  70:N:/EECS 473/Myoelectric/myoelectric/Libraries/XMCLib/inc\xmc_vadc.h ****  * 2015-12-01:
  71:N:/EECS 473/Myoelectric/myoelectric/Libraries/XMCLib/inc\xmc_vadc.h ****  *     - Added:
  72:N:/EECS 473/Myoelectric/myoelectric/Libraries/XMCLib/inc\xmc_vadc.h ****  *     - XMC4300 device supported
  73:N:/EECS 473/Myoelectric/myoelectric/Libraries/XMCLib/inc\xmc_vadc.h ****  *
  74:N:/EECS 473/Myoelectric/myoelectric/Libraries/XMCLib/inc\xmc_vadc.h ****  *     - Fixed:
  75:N:/EECS 473/Myoelectric/myoelectric/Libraries/XMCLib/inc\xmc_vadc.h ****  *     - XMC_VADC_GLOBAL_TriggerEvent API updated. OR operation removed. 
  76:N:/EECS 473/Myoelectric/myoelectric/Libraries/XMCLib/inc\xmc_vadc.h ****  *     - XMC_VADC_GLOBAL_ClearEvent API updated. Multiple events triggering on clearing the event i
  77:N:/EECS 473/Myoelectric/myoelectric/Libraries/XMCLib/inc\xmc_vadc.h ****  *     - Wrong MACRO name defined in xmc_vadc_map.h file corrected for XMC4200/4100 devices.
  78:N:/EECS 473/Myoelectric/myoelectric/Libraries/XMCLib/inc\xmc_vadc.h ****  *       XMC_VADC_G3_SAMPLE renamed to XMC_VADC_G1_SAMPLE
  79:N:/EECS 473/Myoelectric/myoelectric/Libraries/XMCLib/inc\xmc_vadc.h ****  *
  80:N:/EECS 473/Myoelectric/myoelectric/Libraries/XMCLib/inc\xmc_vadc.h ****  * 2015-12-01:
  81:N:/EECS 473/Myoelectric/myoelectric/Libraries/XMCLib/inc\xmc_vadc.h ****  *     - New APIs Created.
  82:N:/EECS 473/Myoelectric/myoelectric/Libraries/XMCLib/inc\xmc_vadc.h ****  *           - XMC_VADC_GROUP_ScanIsArbitrationSlotEnabled
  83:N:/EECS 473/Myoelectric/myoelectric/Libraries/XMCLib/inc\xmc_vadc.h ****  *           - XMC_VADC_GROUP_QueueIsArbitrationSlotEnabled
  84:N:/EECS 473/Myoelectric/myoelectric/Libraries/XMCLib/inc\xmc_vadc.h ****  *     - Fixed the analog calibration voltage for XMC1100 to external reference upper supply range.
  85:N:/EECS 473/Myoelectric/myoelectric/Libraries/XMCLib/inc\xmc_vadc.h ****  *     - Fixed the XMC_VADC_GLOBAL_StartupCalibration() for XMC1100.
  86:N:/EECS 473/Myoelectric/myoelectric/Libraries/XMCLib/inc\xmc_vadc.h ****  *
  87:N:/EECS 473/Myoelectric/myoelectric/Libraries/XMCLib/inc\xmc_vadc.h ****  * 2016-03-09:
  88:N:/EECS 473/Myoelectric/myoelectric/Libraries/XMCLib/inc\xmc_vadc.h ****  *     - Optimization of write only registers
  89:N:/EECS 473/Myoelectric/myoelectric/Libraries/XMCLib/inc\xmc_vadc.h ****  *
  90:N:/EECS 473/Myoelectric/myoelectric/Libraries/XMCLib/inc\xmc_vadc.h ****  * 2016-03-18:
  91:N:/EECS 473/Myoelectric/myoelectric/Libraries/XMCLib/inc\xmc_vadc.h ****  *     - Fixed XMC_VADC_GLOBAL_SHS_IsConverterReady(): API checks the STEPCFG register for the read
  92:N:/EECS 473/Myoelectric/myoelectric/Libraries/XMCLib/inc\xmc_vadc.h ****  *       SHSCFG SFR. 
  93:N:/EECS 473/Myoelectric/myoelectric/Libraries/XMCLib/inc\xmc_vadc.h ****  *
  94:N:/EECS 473/Myoelectric/myoelectric/Libraries/XMCLib/inc\xmc_vadc.h ****  * 2016-06-17:
  95:N:/EECS 473/Myoelectric/myoelectric/Libraries/XMCLib/inc\xmc_vadc.h ****  *     - New macros added XMC_VADC_SHS_FULL_SET_REG, XMC_VADC_RESULT_PRIORITY_AVAILABLE
  96:N:/EECS 473/Myoelectric/myoelectric/Libraries/XMCLib/inc\xmc_vadc.h ****  *     - New Enum added XMC_VADC_SHS_GAIN_LEVEL_t and XMC_VADC_SYNCTR_EVAL_t
  97:N:/EECS 473/Myoelectric/myoelectric/Libraries/XMCLib/inc\xmc_vadc.h ****  *     - New APIs added are:
  98:N:/EECS 473/Myoelectric/myoelectric/Libraries/XMCLib/inc\xmc_vadc.h ****  *           - XMC_VADC_GROUP_SetSyncSlaveReadySignal
  99:N:/EECS 473/Myoelectric/myoelectric/Libraries/XMCLib/inc\xmc_vadc.h ****  *           - XMC_VADC_GROUP_ChannelGetAssertedEvents
 100:N:/EECS 473/Myoelectric/myoelectric/Libraries/XMCLib/inc\xmc_vadc.h ****  *           - XMC_VADC_GROUP_GetAssertedResultEvents
 101:N:/EECS 473/Myoelectric/myoelectric/Libraries/XMCLib/inc\xmc_vadc.h ****  *           - XMC_VADC_GROUP_SetResultRegPriority
 102:N:/EECS 473/Myoelectric/myoelectric/Libraries/XMCLib/inc\xmc_vadc.h ****  *           - XMC_VADC_GROUP_SetSyncReadySignal
 103:N:/EECS 473/Myoelectric/myoelectric/Libraries/XMCLib/inc\xmc_vadc.h ****  *           - XMC_VADC_GROUP_GetSyncReadySignal
 104:N:/EECS 473/Myoelectric/myoelectric/Libraries/XMCLib/inc\xmc_vadc.h ****  *           - XMC_VADC_GROUP_GetResultRegPriority
 105:N:/EECS 473/Myoelectric/myoelectric/Libraries/XMCLib/inc\xmc_vadc.h ****  *
 106:N:/EECS 473/Myoelectric/myoelectric/Libraries/XMCLib/inc\xmc_vadc.h ****  * 2017-02-06:
 107:N:/EECS 473/Myoelectric/myoelectric/Libraries/XMCLib/inc\xmc_vadc.h ****  *     - Added new functions to remove channels from background request source, XMC_VADC_GLOBAL_Bac
 108:N:/EECS 473/Myoelectric/myoelectric/Libraries/XMCLib/inc\xmc_vadc.h ****  *
 109:N:/EECS 473/Myoelectric/myoelectric/Libraries/XMCLib/inc\xmc_vadc.h ****  * 2017-06-24:
 110:N:/EECS 473/Myoelectric/myoelectric/Libraries/XMCLib/inc\xmc_vadc.h ****  *     - Added new function XMC_VADC_GLOBAL_SHS_SetAnalogReference() for XMC1 family
 111:N:/EECS 473/Myoelectric/myoelectric/Libraries/XMCLib/inc\xmc_vadc.h ****  *
 112:N:/EECS 473/Myoelectric/myoelectric/Libraries/XMCLib/inc\xmc_vadc.h ****  * 2017-08-14:
 113:N:/EECS 473/Myoelectric/myoelectric/Libraries/XMCLib/inc\xmc_vadc.h ****  *     - Added XMC_VADC_GLOBAL_DETAILED_RESULT_t
 114:N:/EECS 473/Myoelectric/myoelectric/Libraries/XMCLib/inc\xmc_vadc.h ****  *       You can cast the return of XMC_VADC_GLOBAL_GetDetailedResult() to a varible of type XMC_VA
 115:N:/EECS 473/Myoelectric/myoelectric/Libraries/XMCLib/inc\xmc_vadc.h ****  *     - Fixed XMC_VADC_GLOBAL_SHS_SetAnalogReference() to update AREF bitfield correctly
 116:N:/EECS 473/Myoelectric/myoelectric/Libraries/XMCLib/inc\xmc_vadc.h ****  *
 117:N:/EECS 473/Myoelectric/myoelectric/Libraries/XMCLib/inc\xmc_vadc.h ****  * @endcond 
 118:N:/EECS 473/Myoelectric/myoelectric/Libraries/XMCLib/inc\xmc_vadc.h ****  *
 119:N:/EECS 473/Myoelectric/myoelectric/Libraries/XMCLib/inc\xmc_vadc.h ****  */
 120:N:/EECS 473/Myoelectric/myoelectric/Libraries/XMCLib/inc\xmc_vadc.h **** 
 121:N:/EECS 473/Myoelectric/myoelectric/Libraries/XMCLib/inc\xmc_vadc.h **** #ifndef XMC_VADC_H
 122:N:/EECS 473/Myoelectric/myoelectric/Libraries/XMCLib/inc\xmc_vadc.h **** #define XMC_VADC_H
 123:N:/EECS 473/Myoelectric/myoelectric/Libraries/XMCLib/inc\xmc_vadc.h ****  
 124:N:/EECS 473/Myoelectric/myoelectric/Libraries/XMCLib/inc\xmc_vadc.h **** /**************************************************************************************************
 125:N:/EECS 473/Myoelectric/myoelectric/Libraries/XMCLib/inc\xmc_vadc.h ****  * HEADER FILES
 126:N:/EECS 473/Myoelectric/myoelectric/Libraries/XMCLib/inc\xmc_vadc.h ****  **************************************************************************************************
 127:N:/EECS 473/Myoelectric/myoelectric/Libraries/XMCLib/inc\xmc_vadc.h **** #include <xmc_common.h>
 128:N:/EECS 473/Myoelectric/myoelectric/Libraries/XMCLib/inc\xmc_vadc.h **** #include <xmc_scu.h>
 129:N:/EECS 473/Myoelectric/myoelectric/Libraries/XMCLib/inc\xmc_vadc.h **** #include <xmc_vadc_map.h>
 130:N:/EECS 473/Myoelectric/myoelectric/Libraries/XMCLib/inc\xmc_vadc.h **** 
 131:N:/EECS 473/Myoelectric/myoelectric/Libraries/XMCLib/inc\xmc_vadc.h **** /**
 132:N:/EECS 473/Myoelectric/myoelectric/Libraries/XMCLib/inc\xmc_vadc.h ****  * @addtogroup XMClib XMC Peripheral Library
 133:N:/EECS 473/Myoelectric/myoelectric/Libraries/XMCLib/inc\xmc_vadc.h ****  * @{
 134:N:/EECS 473/Myoelectric/myoelectric/Libraries/XMCLib/inc\xmc_vadc.h ****  */
 135:N:/EECS 473/Myoelectric/myoelectric/Libraries/XMCLib/inc\xmc_vadc.h ****  
 136:N:/EECS 473/Myoelectric/myoelectric/Libraries/XMCLib/inc\xmc_vadc.h **** /**
 137:N:/EECS 473/Myoelectric/myoelectric/Libraries/XMCLib/inc\xmc_vadc.h ****  * @addtogroup VADC
 138:N:/EECS 473/Myoelectric/myoelectric/Libraries/XMCLib/inc\xmc_vadc.h ****  * @brief Versatile Analog to Digital Converter (VADC) driver for XMC microcontroller family.
 139:N:/EECS 473/Myoelectric/myoelectric/Libraries/XMCLib/inc\xmc_vadc.h ****  *
 140:N:/EECS 473/Myoelectric/myoelectric/Libraries/XMCLib/inc\xmc_vadc.h ****  * The XMC microcontroller provides a series of analog input channels connected to a cluster of Ana
 141:N:/EECS 473/Myoelectric/myoelectric/Libraries/XMCLib/inc\xmc_vadc.h ****  * Converters using the Successive Approximation Register (SAR) principle to convert analog input v
 142:N:/EECS 473/Myoelectric/myoelectric/Libraries/XMCLib/inc\xmc_vadc.h ****  * to discrete digital values.
 143:N:/EECS 473/Myoelectric/myoelectric/Libraries/XMCLib/inc\xmc_vadc.h ****  * \if XMC1
 144:N:/EECS 473/Myoelectric/myoelectric/Libraries/XMCLib/inc\xmc_vadc.h ****  * The XMC1x is based on Sample & Hold converters, where a cluster contains 2 Sample&Hold units whi
 145:N:/EECS 473/Myoelectric/myoelectric/Libraries/XMCLib/inc\xmc_vadc.h ****  * converter.
 146:N:/EECS 473/Myoelectric/myoelectric/Libraries/XMCLib/inc\xmc_vadc.h ****  * \endif
 147:N:/EECS 473/Myoelectric/myoelectric/Libraries/XMCLib/inc\xmc_vadc.h ****  *
 148:N:/EECS 473/Myoelectric/myoelectric/Libraries/XMCLib/inc\xmc_vadc.h ****  * Each converter of the ADC cluster can operate independent of the others, controlled by a dedicat
 149:N:/EECS 473/Myoelectric/myoelectric/Libraries/XMCLib/inc\xmc_vadc.h ****  * registers and triggered by a dedicated group request source. The results of each channel can be 
 150:N:/EECS 473/Myoelectric/myoelectric/Libraries/XMCLib/inc\xmc_vadc.h ****  * dedicated channel-specific result register or in a group-specific result register.<BR>
 151:N:/EECS 473/Myoelectric/myoelectric/Libraries/XMCLib/inc\xmc_vadc.h ****  *
 152:N:/EECS 473/Myoelectric/myoelectric/Libraries/XMCLib/inc\xmc_vadc.h ****  * The Versatile Analog to Digital Converter module (VADC) of the XMC comprises a set of converter 
 153:N:/EECS 473/Myoelectric/myoelectric/Libraries/XMCLib/inc\xmc_vadc.h ****  * can be operated either independently or via a common request source that emulates a background c
 154:N:/EECS 473/Myoelectric/myoelectric/Libraries/XMCLib/inc\xmc_vadc.h ****  * Each converter block is equipped with a dedicated input multiplexer and dedicated request source
 155:N:/EECS 473/Myoelectric/myoelectric/Libraries/XMCLib/inc\xmc_vadc.h ****  * which together build separate groups.
 156:N:/EECS 473/Myoelectric/myoelectric/Libraries/XMCLib/inc\xmc_vadc.h ****  *
 157:N:/EECS 473/Myoelectric/myoelectric/Libraries/XMCLib/inc\xmc_vadc.h ****  * \if XMC4
 158:N:/EECS 473/Myoelectric/myoelectric/Libraries/XMCLib/inc\xmc_vadc.h ****  * @image html "vadc_overview_xmc4x.png"
 159:N:/EECS 473/Myoelectric/myoelectric/Libraries/XMCLib/inc\xmc_vadc.h ****  * \else
 160:N:/EECS 473/Myoelectric/myoelectric/Libraries/XMCLib/inc\xmc_vadc.h ****  * @image html "vadc_overview_xmc1x.png"
 161:N:/EECS 473/Myoelectric/myoelectric/Libraries/XMCLib/inc\xmc_vadc.h ****  * \endif
 162:N:/EECS 473/Myoelectric/myoelectric/Libraries/XMCLib/inc\xmc_vadc.h ****  *
 163:N:/EECS 473/Myoelectric/myoelectric/Libraries/XMCLib/inc\xmc_vadc.h ****  * The VADC LLD is split into GLOBAL and GROUP related APIs.<BR>
 164:N:/EECS 473/Myoelectric/myoelectric/Libraries/XMCLib/inc\xmc_vadc.h ****  * <B>GLOBAL: </B><BR>
 165:N:/EECS 473/Myoelectric/myoelectric/Libraries/XMCLib/inc\xmc_vadc.h ****  * <UL>
 166:N:/EECS 473/Myoelectric/myoelectric/Libraries/XMCLib/inc\xmc_vadc.h ****  * <LI>Global APIs act on the entire ADC module. Configures global configuration registers</LI>
 167:N:/EECS 473/Myoelectric/myoelectric/Libraries/XMCLib/inc\xmc_vadc.h ****  * <LI>Allows configuration of the background request source of the VADC.</LI>
 168:N:/EECS 473/Myoelectric/myoelectric/Libraries/XMCLib/inc\xmc_vadc.h ****  * <LI>The clock related configurations for the VADC module are configured in the Global APIs/</LI>
 169:N:/EECS 473/Myoelectric/myoelectric/Libraries/XMCLib/inc\xmc_vadc.h ****  * <LI>The Global API names are prefixed by the \b XMC_VADC_GLOBAL_ and they accept ::XMC_VADC_GLOB
 170:N:/EECS 473/Myoelectric/myoelectric/Libraries/XMCLib/inc\xmc_vadc.h ****  *     one of its arguments.</LI>
 171:N:/EECS 473/Myoelectric/myoelectric/Libraries/XMCLib/inc\xmc_vadc.h ****  * <LI>Configures the background request source of the VADC. The APIs which act on the background r
 172:N:/EECS 473/Myoelectric/myoelectric/Libraries/XMCLib/inc\xmc_vadc.h ****  *     are prefixed by \b XMC_VADC_GLOBAL_Background</LI>
 173:N:/EECS 473/Myoelectric/myoelectric/Libraries/XMCLib/inc\xmc_vadc.h ****  * <LI>Configures the sample and hold unit of the VADC. The APIs which act on the SHS related regis
 174:N:/EECS 473/Myoelectric/myoelectric/Libraries/XMCLib/inc\xmc_vadc.h ****  *     are prefixed by \b XMC_VADC_GLOBAL_SHS_</LI>
 175:N:/EECS 473/Myoelectric/myoelectric/Libraries/XMCLib/inc\xmc_vadc.h ****  * </UL><BR>
 176:N:/EECS 473/Myoelectric/myoelectric/Libraries/XMCLib/inc\xmc_vadc.h ****  *
 177:N:/EECS 473/Myoelectric/myoelectric/Libraries/XMCLib/inc\xmc_vadc.h ****  * <B>GROUP: </B><BR>
 178:N:/EECS 473/Myoelectric/myoelectric/Libraries/XMCLib/inc\xmc_vadc.h ****  * <UL>
 179:N:/EECS 473/Myoelectric/myoelectric/Libraries/XMCLib/inc\xmc_vadc.h ****  * <LI>Group APIs act on a VADC group. Configures the group configuration registers</LI>
 180:N:/EECS 473/Myoelectric/myoelectric/Libraries/XMCLib/inc\xmc_vadc.h ****  * <LI>Configures the queue request source of the VADC. The APIs which act on the queue related reg
 181:N:/EECS 473/Myoelectric/myoelectric/Libraries/XMCLib/inc\xmc_vadc.h ****  *     are prefixed by \b XMC_VADC_GROUP_Queue</LI>
 182:N:/EECS 473/Myoelectric/myoelectric/Libraries/XMCLib/inc\xmc_vadc.h ****  * <LI>Configures the scan request source of the VADC. The APIs which act on the scan related regis
 183:N:/EECS 473/Myoelectric/myoelectric/Libraries/XMCLib/inc\xmc_vadc.h ****  *     are prefixed by \b XMC_VADC_GROUP_Scan</LI>
 184:N:/EECS 473/Myoelectric/myoelectric/Libraries/XMCLib/inc\xmc_vadc.h ****  * <LI>Configuration of the channels of each group are done by the API which have a prefix as
 185:N:/EECS 473/Myoelectric/myoelectric/Libraries/XMCLib/inc\xmc_vadc.h ****  *     \b XMC_VADC_GROUP_Channel.</LI>
 186:N:/EECS 473/Myoelectric/myoelectric/Libraries/XMCLib/inc\xmc_vadc.h ****  * <LI>The Group API names are prefixed by the \b XMC_VADC_GROUP_ and they accept ::XMC_VADC_GROUP_
 187:N:/EECS 473/Myoelectric/myoelectric/Libraries/XMCLib/inc\xmc_vadc.h ****  *     one of its arguments.</LI>
 188:N:/EECS 473/Myoelectric/myoelectric/Libraries/XMCLib/inc\xmc_vadc.h ****  * </UL><BR>
 189:N:/EECS 473/Myoelectric/myoelectric/Libraries/XMCLib/inc\xmc_vadc.h ****  * @{
 190:N:/EECS 473/Myoelectric/myoelectric/Libraries/XMCLib/inc\xmc_vadc.h ****  */
 191:N:/EECS 473/Myoelectric/myoelectric/Libraries/XMCLib/inc\xmc_vadc.h ****  
 192:N:/EECS 473/Myoelectric/myoelectric/Libraries/XMCLib/inc\xmc_vadc.h **** /**************************************************************************************************
 193:N:/EECS 473/Myoelectric/myoelectric/Libraries/XMCLib/inc\xmc_vadc.h ****  * MACROS
 194:N:/EECS 473/Myoelectric/myoelectric/Libraries/XMCLib/inc\xmc_vadc.h ****  **************************************************************************************************
 195:N:/EECS 473/Myoelectric/myoelectric/Libraries/XMCLib/inc\xmc_vadc.h **** 
 196:N:/EECS 473/Myoelectric/myoelectric/Libraries/XMCLib/inc\xmc_vadc.h **** #if ((UC_SERIES == XMC42)||(UC_SERIES == XMC41) || (UC_SERIES == XMC43))
 197:N:/EECS 473/Myoelectric/myoelectric/Libraries/XMCLib/inc\xmc_vadc.h **** #define XMC_VADC_GROUP_AVAILABLE           (1U) /*  Defines the availability of group resource in a
 198:N:/EECS 473/Myoelectric/myoelectric/Libraries/XMCLib/inc\xmc_vadc.h **** #define XMC_VADC_GSCAN_AVAILABLE           (1U) /*  Defines the availability of scan request resour
 199:N:/EECS 473/Myoelectric/myoelectric/Libraries/XMCLib/inc\xmc_vadc.h **** #define XMC_VADC_QUEUE_AVAILABLE           (1U) /*  Defines the availability of queue request resou
 200:N:/EECS 473/Myoelectric/myoelectric/Libraries/XMCLib/inc\xmc_vadc.h **** #define XMC_VADC_EMUX_AVAILABLE            (1U) /*  Defines the availability of external multiplexe
 201:N:/EECS 473/Myoelectric/myoelectric/Libraries/XMCLib/inc\xmc_vadc.h ****                                                     device*/
 202:N:/EECS 473/Myoelectric/myoelectric/Libraries/XMCLib/inc\xmc_vadc.h **** #define XMC_VADC_BOUNDARY_AVAILABLE        (1U) /*  Defines the availability of boundary check supp
 203:N:/EECS 473/Myoelectric/myoelectric/Libraries/XMCLib/inc\xmc_vadc.h **** #define XMC_VADC_MULTIPLE_SLAVEGROUPS      (1U) /*  Defines the availability of synchronous request
 204:N:/EECS 473/Myoelectric/myoelectric/Libraries/XMCLib/inc\xmc_vadc.h **** #define XMC_VADC_MAXIMUM_NUM_GROUPS        (2U) /*  Defines the maximum number of groups available 
 205:N:/EECS 473/Myoelectric/myoelectric/Libraries/XMCLib/inc\xmc_vadc.h **** #define XMC_VADC_BOUNDARY_FLAG_SELECT      (1U) /*  Defines the availability of boundary flags in a
 206:N:/EECS 473/Myoelectric/myoelectric/Libraries/XMCLib/inc\xmc_vadc.h **** #define XMC_VADC_EMUX_CH_SEL_STYLE         (1U) /*  Defines the external multiplexer channel select
 207:N:/EECS 473/Myoelectric/myoelectric/Libraries/XMCLib/inc\xmc_vadc.h ****                                                     operation for a particular device*/
 208:N:/EECS 473/Myoelectric/myoelectric/Libraries/XMCLib/inc\xmc_vadc.h **** #define XMC_VADC_SHS_AVAILABLE             (0U) /* Defines the availability of sample and hold modu
 209:N:/EECS 473/Myoelectric/myoelectric/Libraries/XMCLib/inc\xmc_vadc.h **** #define XMC_VADC_SHS_FULL_SET_REG          (0U) /* Defines the availability of sample and hold modu
 210:N:/EECS 473/Myoelectric/myoelectric/Libraries/XMCLib/inc\xmc_vadc.h **** #define XMC_VADC_GROUP_SRCREG_AVAILABLE    (1U) /* Define the availability of a source specific res
 211:N:/EECS 473/Myoelectric/myoelectric/Libraries/XMCLib/inc\xmc_vadc.h **** #define XMC_VADC_RESULT_PRIORITY_AVAILABLE (0U) /* Define the availability of a priority for result
 212:N:/EECS 473/Myoelectric/myoelectric/Libraries/XMCLib/inc\xmc_vadc.h **** #endif
 213:N:/EECS 473/Myoelectric/myoelectric/Libraries/XMCLib/inc\xmc_vadc.h **** 
 214:N:/EECS 473/Myoelectric/myoelectric/Libraries/XMCLib/inc\xmc_vadc.h **** #if (UC_SERIES == XMC44 || UC_SERIES == XMC47 || UC_SERIES == XMC48)
 215:N:/EECS 473/Myoelectric/myoelectric/Libraries/XMCLib/inc\xmc_vadc.h **** #define XMC_VADC_GROUP_AVAILABLE         (1U) /*  Defines the availability of group resource in a d
 216:N:/EECS 473/Myoelectric/myoelectric/Libraries/XMCLib/inc\xmc_vadc.h **** #define XMC_VADC_GSCAN_AVAILABLE         (1U) /*  Defines the availability of scan request resource
 217:N:/EECS 473/Myoelectric/myoelectric/Libraries/XMCLib/inc\xmc_vadc.h **** #define XMC_VADC_QUEUE_AVAILABLE         (1U) /*  Defines the availability of queue request resourc
 218:N:/EECS 473/Myoelectric/myoelectric/Libraries/XMCLib/inc\xmc_vadc.h **** #define XMC_VADC_EMUX_AVAILABLE          (1U) /*  Defines the availability of external multiplexer 
 219:N:/EECS 473/Myoelectric/myoelectric/Libraries/XMCLib/inc\xmc_vadc.h ****                                                     device*/
 220:N:/EECS 473/Myoelectric/myoelectric/Libraries/XMCLib/inc\xmc_vadc.h **** #define XMC_VADC_BOUNDARY_AVAILABLE      (1U) /*  Defines the availability of boundary check suppor
 221:N:/EECS 473/Myoelectric/myoelectric/Libraries/XMCLib/inc\xmc_vadc.h **** #define XMC_VADC_MULTIPLE_SLAVEGROUPS    (1U) /*  Defines the availability of synchronous request s
 222:N:/EECS 473/Myoelectric/myoelectric/Libraries/XMCLib/inc\xmc_vadc.h **** #define XMC_VADC_MAXIMUM_NUM_GROUPS      (4U) /*  Defines the maximum number of groups available in
 223:N:/EECS 473/Myoelectric/myoelectric/Libraries/XMCLib/inc\xmc_vadc.h **** #define XMC_VADC_BOUNDARY_FLAG_SELECT    (1U) /*  Defines the availability of boundary flags in a d
 224:N:/EECS 473/Myoelectric/myoelectric/Libraries/XMCLib/inc\xmc_vadc.h **** #define XMC_VADC_EMUX_CH_SEL_STYLE       (1U) /*  Defines the external multiplexer channel selectio
 225:N:/EECS 473/Myoelectric/myoelectric/Libraries/XMCLib/inc\xmc_vadc.h ****                                                     operation for a particular device*/
 226:N:/EECS 473/Myoelectric/myoelectric/Libraries/XMCLib/inc\xmc_vadc.h **** #define XMC_VADC_SHS_AVAILABLE           (0U) /* Defines the availability of sample and hold module
 227:N:/EECS 473/Myoelectric/myoelectric/Libraries/XMCLib/inc\xmc_vadc.h **** #define XMC_VADC_SHS_FULL_SET_REG        (0U) /* Defines the availability of sample and hold module
 228:N:/EECS 473/Myoelectric/myoelectric/Libraries/XMCLib/inc\xmc_vadc.h **** #define XMC_VADC_GROUP_SRCREG_AVAILABLE  (1U) /* Define the availability of a source specific resul
 229:N:/EECS 473/Myoelectric/myoelectric/Libraries/XMCLib/inc\xmc_vadc.h **** #define XMC_VADC_RESULT_PRIORITY_AVAILABLE (0U) /* Define the availability of a priority for result
 230:N:/EECS 473/Myoelectric/myoelectric/Libraries/XMCLib/inc\xmc_vadc.h **** #endif
 231:N:/EECS 473/Myoelectric/myoelectric/Libraries/XMCLib/inc\xmc_vadc.h **** 
 232:N:/EECS 473/Myoelectric/myoelectric/Libraries/XMCLib/inc\xmc_vadc.h **** #if (UC_SERIES == XMC45)
 233:N:/EECS 473/Myoelectric/myoelectric/Libraries/XMCLib/inc\xmc_vadc.h **** #define XMC_VADC_GROUP_AVAILABLE         (1U) /*  Defines the availability of group resource in a d
 234:N:/EECS 473/Myoelectric/myoelectric/Libraries/XMCLib/inc\xmc_vadc.h **** #define XMC_VADC_GSCAN_AVAILABLE         (1U) /*  Defines the availability of scan request resource
 235:N:/EECS 473/Myoelectric/myoelectric/Libraries/XMCLib/inc\xmc_vadc.h **** #define XMC_VADC_QUEUE_AVAILABLE         (1U) /*  Defines the availability of queue request resourc
 236:N:/EECS 473/Myoelectric/myoelectric/Libraries/XMCLib/inc\xmc_vadc.h **** #define XMC_VADC_EMUX_AVAILABLE          (1U) /*  Defines the availability of external multiplexer 
 237:N:/EECS 473/Myoelectric/myoelectric/Libraries/XMCLib/inc\xmc_vadc.h ****                                                     device*/
 238:N:/EECS 473/Myoelectric/myoelectric/Libraries/XMCLib/inc\xmc_vadc.h **** #define XMC_VADC_BOUNDARY_AVAILABLE      (1U) /*  Defines the availability of boundary check suppor
 239:N:/EECS 473/Myoelectric/myoelectric/Libraries/XMCLib/inc\xmc_vadc.h **** #define XMC_VADC_MULTIPLE_SLAVEGROUPS    (1U) /*  Defines the availability of synchronous request s
 240:N:/EECS 473/Myoelectric/myoelectric/Libraries/XMCLib/inc\xmc_vadc.h **** #define XMC_VADC_MAXIMUM_NUM_GROUPS      (4U) /*  Defines the maximum number of groups available in
 241:N:/EECS 473/Myoelectric/myoelectric/Libraries/XMCLib/inc\xmc_vadc.h **** #define XMC_VADC_BOUNDARY_FLAG_SELECT    (0U) /*  Defines the availability of boundary flags in a d
 242:N:/EECS 473/Myoelectric/myoelectric/Libraries/XMCLib/inc\xmc_vadc.h **** #define XMC_VADC_EMUX_CH_SEL_STYLE       (0U) /*  Defines the external multiplexer channel selectio
 243:N:/EECS 473/Myoelectric/myoelectric/Libraries/XMCLib/inc\xmc_vadc.h ****                                                     operation for a particular device*/
 244:N:/EECS 473/Myoelectric/myoelectric/Libraries/XMCLib/inc\xmc_vadc.h **** #define XMC_VADC_SHS_AVAILABLE           (0U) /* Defines the availability of sample and hold module
 245:N:/EECS 473/Myoelectric/myoelectric/Libraries/XMCLib/inc\xmc_vadc.h **** #define XMC_VADC_SHS_FULL_SET_REG        (0U) /* Defines the availability of sample and hold module
 246:N:/EECS 473/Myoelectric/myoelectric/Libraries/XMCLib/inc\xmc_vadc.h **** #define XMC_VADC_GROUP_SRCREG_AVAILABLE  (0U) /* Define the availability of a source specific resul
 247:N:/EECS 473/Myoelectric/myoelectric/Libraries/XMCLib/inc\xmc_vadc.h **** #define XMC_VADC_RESULT_PRIORITY_AVAILABLE (0U) /* Define the availability of a priority for result
 248:N:/EECS 473/Myoelectric/myoelectric/Libraries/XMCLib/inc\xmc_vadc.h **** #endif
 249:N:/EECS 473/Myoelectric/myoelectric/Libraries/XMCLib/inc\xmc_vadc.h **** 
 250:N:/EECS 473/Myoelectric/myoelectric/Libraries/XMCLib/inc\xmc_vadc.h **** #if (UC_SERIES == XMC14 || UC_SERIES == XMC13 || UC_SERIES == XMC12)
 251:N:/EECS 473/Myoelectric/myoelectric/Libraries/XMCLib/inc\xmc_vadc.h **** #define XMC_VADC_GROUP_AVAILABLE         (1U) /*  Defines the availability of group resource in a d
 252:N:/EECS 473/Myoelectric/myoelectric/Libraries/XMCLib/inc\xmc_vadc.h **** #define XMC_VADC_GSCAN_AVAILABLE         (1U) /*  Defines the availability of scan request resource
 253:N:/EECS 473/Myoelectric/myoelectric/Libraries/XMCLib/inc\xmc_vadc.h **** #define XMC_VADC_QUEUE_AVAILABLE         (1U) /*  Defines the availability of queue request resourc
 254:N:/EECS 473/Myoelectric/myoelectric/Libraries/XMCLib/inc\xmc_vadc.h **** #define XMC_VADC_EMUX_AVAILABLE          (1U) /*  Defines the availability of external multiplexer 
 255:N:/EECS 473/Myoelectric/myoelectric/Libraries/XMCLib/inc\xmc_vadc.h ****                                                     device*/
 256:N:/EECS 473/Myoelectric/myoelectric/Libraries/XMCLib/inc\xmc_vadc.h **** #define XMC_VADC_BOUNDARY_AVAILABLE      (1U) /*  Defines the availability of boundary check suppor
 257:N:/EECS 473/Myoelectric/myoelectric/Libraries/XMCLib/inc\xmc_vadc.h **** #define XMC_VADC_MULTIPLE_SLAVEGROUPS    (1U) /*  Defines the availability of synchronous request s
 258:N:/EECS 473/Myoelectric/myoelectric/Libraries/XMCLib/inc\xmc_vadc.h **** #define XMC_VADC_MAXIMUM_NUM_GROUPS      (2U) /*  Defines the maximum number of groups available in
 259:N:/EECS 473/Myoelectric/myoelectric/Libraries/XMCLib/inc\xmc_vadc.h **** #define XMC_VADC_BOUNDARY_FLAG_SELECT    (1U) /*  Defines the availability of boundary flags in a d
 260:N:/EECS 473/Myoelectric/myoelectric/Libraries/XMCLib/inc\xmc_vadc.h **** #define XMC_VADC_EMUX_CH_SEL_STYLE       (1U) /*  Defines the external multiplexer channel selectio
 261:N:/EECS 473/Myoelectric/myoelectric/Libraries/XMCLib/inc\xmc_vadc.h ****                                                     operation for a particular device*/
 262:N:/EECS 473/Myoelectric/myoelectric/Libraries/XMCLib/inc\xmc_vadc.h **** #define XMC_VADC_SHS_AVAILABLE           (1U) /* Defines the availability of sample and hold module
 263:N:/EECS 473/Myoelectric/myoelectric/Libraries/XMCLib/inc\xmc_vadc.h **** #define XMC_VADC_SHS_FULL_SET_REG        (1U) /* Defines the availability of sample and hold module
 264:N:/EECS 473/Myoelectric/myoelectric/Libraries/XMCLib/inc\xmc_vadc.h **** #define XMC_VADC_GROUP_SRCREG_AVAILABLE  (1U) /* Define the availability of a source specific resul
 265:N:/EECS 473/Myoelectric/myoelectric/Libraries/XMCLib/inc\xmc_vadc.h **** #define XMC_VADC_RESULT_PRIORITY_AVAILABLE (1U) /* Define the availability of a priority for result
 266:N:/EECS 473/Myoelectric/myoelectric/Libraries/XMCLib/inc\xmc_vadc.h **** #endif
 267:N:/EECS 473/Myoelectric/myoelectric/Libraries/XMCLib/inc\xmc_vadc.h **** 
 268:N:/EECS 473/Myoelectric/myoelectric/Libraries/XMCLib/inc\xmc_vadc.h **** #if (UC_SERIES == XMC11)
 269:N:/EECS 473/Myoelectric/myoelectric/Libraries/XMCLib/inc\xmc_vadc.h **** #define XMC_VADC_GROUP_AVAILABLE         (0U) /*  Defines the availability of group resource in a d
 270:N:/EECS 473/Myoelectric/myoelectric/Libraries/XMCLib/inc\xmc_vadc.h **** #define XMC_VADC_GSCAN_AVAILABLE         (0U) /*  Defines the availability of scan request resource
 271:N:/EECS 473/Myoelectric/myoelectric/Libraries/XMCLib/inc\xmc_vadc.h **** #define XMC_VADC_QUEUE_AVAILABLE         (0U) /*  Defines the availability of queue request resourc
 272:N:/EECS 473/Myoelectric/myoelectric/Libraries/XMCLib/inc\xmc_vadc.h **** #define XMC_VADC_EMUX_AVAILABLE          (0U) /*  Defines the availability of external multiplexer 
 273:N:/EECS 473/Myoelectric/myoelectric/Libraries/XMCLib/inc\xmc_vadc.h ****                                                     device*/
 274:N:/EECS 473/Myoelectric/myoelectric/Libraries/XMCLib/inc\xmc_vadc.h **** #define XMC_VADC_BOUNDARY_AVAILABLE      (0U) /*  Defines the availability of boundary check suppor
 275:N:/EECS 473/Myoelectric/myoelectric/Libraries/XMCLib/inc\xmc_vadc.h **** #define XMC_VADC_MULTIPLE_SLAVEGROUPS    (0U) /*  Defines the availability of synchronous request s
 276:N:/EECS 473/Myoelectric/myoelectric/Libraries/XMCLib/inc\xmc_vadc.h **** #define XMC_VADC_MAXIMUM_NUM_GROUPS      (2U) /*  Defines the maximum number of groups available in
 277:N:/EECS 473/Myoelectric/myoelectric/Libraries/XMCLib/inc\xmc_vadc.h **** #define XMC_VADC_BOUNDARY_FLAG_SELECT    (0U) /*  Defines the availability of boundary flags in a d
 278:N:/EECS 473/Myoelectric/myoelectric/Libraries/XMCLib/inc\xmc_vadc.h **** #define XMC_VADC_SHS_START_UP_CAL_ACTIVE (3U) /*  Defines the need for SHS startup calibration acti
 279:N:/EECS 473/Myoelectric/myoelectric/Libraries/XMCLib/inc\xmc_vadc.h ****                                                     XMC1100 devices */
 280:N:/EECS 473/Myoelectric/myoelectric/Libraries/XMCLib/inc\xmc_vadc.h **** #define XMC_VADC_CONV_ENABLE_FOR_XMC11   (*(uint32_t*) 0x40010500UL) /*  Defines the additional err
 281:N:/EECS 473/Myoelectric/myoelectric/Libraries/XMCLib/inc\xmc_vadc.h ****                                                     XMC1100 device for effective working*/ 
 282:N:/EECS 473/Myoelectric/myoelectric/Libraries/XMCLib/inc\xmc_vadc.h **** #define XMC_VADC_EMUX_CH_SEL_STYLE       (0U) /*  Defines the external multiplexer channel selectio
 283:N:/EECS 473/Myoelectric/myoelectric/Libraries/XMCLib/inc\xmc_vadc.h ****                                                     operation for a particular device*/
 284:N:/EECS 473/Myoelectric/myoelectric/Libraries/XMCLib/inc\xmc_vadc.h **** #define XMC_VADC_SHS_AVAILABLE           (1U) /* Defines the availability of sample and hold module
 285:N:/EECS 473/Myoelectric/myoelectric/Libraries/XMCLib/inc\xmc_vadc.h **** #define XMC_VADC_SHS_FULL_SET_REG        (0U) /* Defines the availability of sample and hold module
 286:N:/EECS 473/Myoelectric/myoelectric/Libraries/XMCLib/inc\xmc_vadc.h **** #define XMC_VADC_GROUP_SRCREG_AVAILABLE  (0U) /* Define the availability of a source specific resul
 287:N:/EECS 473/Myoelectric/myoelectric/Libraries/XMCLib/inc\xmc_vadc.h **** #define XMC_VADC_RESULT_PRIORITY_AVAILABLE (0U) /* Define the availability of a priority for result
 288:N:/EECS 473/Myoelectric/myoelectric/Libraries/XMCLib/inc\xmc_vadc.h **** #endif
 289:N:/EECS 473/Myoelectric/myoelectric/Libraries/XMCLib/inc\xmc_vadc.h **** 
 290:N:/EECS 473/Myoelectric/myoelectric/Libraries/XMCLib/inc\xmc_vadc.h **** #define XMC_VADC_NUM_PORTS               (16U) /* Defines the number of hardware ports that can be 
 291:N:/EECS 473/Myoelectric/myoelectric/Libraries/XMCLib/inc\xmc_vadc.h ****                                                     as triggers and gating signals */
 292:N:/EECS 473/Myoelectric/myoelectric/Libraries/XMCLib/inc\xmc_vadc.h **** 
 293:N:/EECS 473/Myoelectric/myoelectric/Libraries/XMCLib/inc\xmc_vadc.h **** #define XMC_VADC_NUM_RESULT_REGISTERS    (16U) /* Defines the number of result holding registers pe
 294:N:/EECS 473/Myoelectric/myoelectric/Libraries/XMCLib/inc\xmc_vadc.h **** 
 295:N:/EECS 473/Myoelectric/myoelectric/Libraries/XMCLib/inc\xmc_vadc.h **** #define XMC_VADC_NUM_CHANNELS_PER_GROUP  (8U)  /**< Defines the number of ADC channels per group */
 296:N:/EECS 473/Myoelectric/myoelectric/Libraries/XMCLib/inc\xmc_vadc.h **** 
 297:N:/EECS 473/Myoelectric/myoelectric/Libraries/XMCLib/inc\xmc_vadc.h **** /**************************************************************************************************
 298:N:/EECS 473/Myoelectric/myoelectric/Libraries/XMCLib/inc\xmc_vadc.h ****  * ENUMS
 299:N:/EECS 473/Myoelectric/myoelectric/Libraries/XMCLib/inc\xmc_vadc.h ****  **************************************************************************************************
 300:N:/EECS 473/Myoelectric/myoelectric/Libraries/XMCLib/inc\xmc_vadc.h **** typedef uint16_t XMC_VADC_RESULT_SIZE_t; /**< Type defined the converted result size to unsigned 16
 301:N:/EECS 473/Myoelectric/myoelectric/Libraries/XMCLib/inc\xmc_vadc.h **** typedef VADC_GLOBAL_TypeDef XMC_VADC_GLOBAL_t; /**< Type defined the device header file vadc global
 302:N:/EECS 473/Myoelectric/myoelectric/Libraries/XMCLib/inc\xmc_vadc.h ****                                              type to VADC type*/
 303:N:/EECS 473/Myoelectric/myoelectric/Libraries/XMCLib/inc\xmc_vadc.h **** 
 304:N:/EECS 473/Myoelectric/myoelectric/Libraries/XMCLib/inc\xmc_vadc.h **** #if(XMC_VADC_GROUP_AVAILABLE == 1U)
 305:N:/EECS 473/Myoelectric/myoelectric/Libraries/XMCLib/inc\xmc_vadc.h **** typedef VADC_G_TypeDef XMC_VADC_GROUP_t; /**< Type defined the device header file vadc group regist
 306:N:/EECS 473/Myoelectric/myoelectric/Libraries/XMCLib/inc\xmc_vadc.h ****                                              type to VADC Group type*/
 307:N:/EECS 473/Myoelectric/myoelectric/Libraries/XMCLib/inc\xmc_vadc.h **** #endif
 308:N:/EECS 473/Myoelectric/myoelectric/Libraries/XMCLib/inc\xmc_vadc.h **** 
 309:N:/EECS 473/Myoelectric/myoelectric/Libraries/XMCLib/inc\xmc_vadc.h **** #if(XMC_VADC_SHS_AVAILABLE == 1U)
 310:N:/EECS 473/Myoelectric/myoelectric/Libraries/XMCLib/inc\xmc_vadc.h **** typedef SHS_Type XMC_VADC_GLOBAL_SHS_t; /**< Type defined the sample and hold register structure*/
 311:N:/EECS 473/Myoelectric/myoelectric/Libraries/XMCLib/inc\xmc_vadc.h **** #endif
 312:N:/EECS 473/Myoelectric/myoelectric/Libraries/XMCLib/inc\xmc_vadc.h **** /**
 313:N:/EECS 473/Myoelectric/myoelectric/Libraries/XMCLib/inc\xmc_vadc.h ****  *  Defines the return status after execution of VADC specific API's. Use @ref XMC_VADC_STATUS_t fo
 314:N:/EECS 473/Myoelectric/myoelectric/Libraries/XMCLib/inc\xmc_vadc.h ****  */
 315:N:/EECS 473/Myoelectric/myoelectric/Libraries/XMCLib/inc\xmc_vadc.h **** typedef enum XMC_VADC_STATUS
 316:N:/EECS 473/Myoelectric/myoelectric/Libraries/XMCLib/inc\xmc_vadc.h **** {
 317:N:/EECS 473/Myoelectric/myoelectric/Libraries/XMCLib/inc\xmc_vadc.h ****   XMC_VADC_STATUS_SUCCESS = 0,   /**< Returned when the API has been able to fulfill the callers re
 318:N:/EECS 473/Myoelectric/myoelectric/Libraries/XMCLib/inc\xmc_vadc.h ****   XMC_VADC_STATUS_ERROR          /**< Returned when the API cannot fulfill the request */
 319:N:/EECS 473/Myoelectric/myoelectric/Libraries/XMCLib/inc\xmc_vadc.h **** } XMC_VADC_STATUS_t;
 320:N:/EECS 473/Myoelectric/myoelectric/Libraries/XMCLib/inc\xmc_vadc.h **** 
 321:N:/EECS 473/Myoelectric/myoelectric/Libraries/XMCLib/inc\xmc_vadc.h **** /**
 322:N:/EECS 473/Myoelectric/myoelectric/Libraries/XMCLib/inc\xmc_vadc.h ****  *  Defines the various service requests lines. Each group can raise up to 4 service requests indep
 323:N:/EECS 473/Myoelectric/myoelectric/Libraries/XMCLib/inc\xmc_vadc.h ****  *  all groups together have the possibility of raising 4 module wide service requests. Use @ref XM
 324:N:/EECS 473/Myoelectric/myoelectric/Libraries/XMCLib/inc\xmc_vadc.h ****  *  enumeration.
 325:N:/EECS 473/Myoelectric/myoelectric/Libraries/XMCLib/inc\xmc_vadc.h ****  */
 326:N:/EECS 473/Myoelectric/myoelectric/Libraries/XMCLib/inc\xmc_vadc.h **** typedef enum XMC_VADC_SR
 327:N:/EECS 473/Myoelectric/myoelectric/Libraries/XMCLib/inc\xmc_vadc.h **** {
 328:N:/EECS 473/Myoelectric/myoelectric/Libraries/XMCLib/inc\xmc_vadc.h ****   XMC_VADC_SR_GROUP_SR0 = 0, /**< Group specific Service Request-0 */
 329:N:/EECS 473/Myoelectric/myoelectric/Libraries/XMCLib/inc\xmc_vadc.h ****   XMC_VADC_SR_GROUP_SR1,     /**< Group specific Service Request-1 */
 330:N:/EECS 473/Myoelectric/myoelectric/Libraries/XMCLib/inc\xmc_vadc.h ****   XMC_VADC_SR_GROUP_SR2,     /**< Group specific Service Request-2 */
 331:N:/EECS 473/Myoelectric/myoelectric/Libraries/XMCLib/inc\xmc_vadc.h ****   XMC_VADC_SR_GROUP_SR3,     /**< Group specific Service Request-3 */
 332:N:/EECS 473/Myoelectric/myoelectric/Libraries/XMCLib/inc\xmc_vadc.h ****   XMC_VADC_SR_SHARED_SR0,    /**< Module Wide Common Service Request-0 */
 333:N:/EECS 473/Myoelectric/myoelectric/Libraries/XMCLib/inc\xmc_vadc.h ****   XMC_VADC_SR_SHARED_SR1,    /**< Module Wide Common Service Request-1 */
 334:N:/EECS 473/Myoelectric/myoelectric/Libraries/XMCLib/inc\xmc_vadc.h ****   XMC_VADC_SR_SHARED_SR2,    /**< Module Wide Common Service Request-2 */
 335:N:/EECS 473/Myoelectric/myoelectric/Libraries/XMCLib/inc\xmc_vadc.h ****   XMC_VADC_SR_SHARED_SR3    /**< Module Wide Common Service Request-3 */
 336:N:/EECS 473/Myoelectric/myoelectric/Libraries/XMCLib/inc\xmc_vadc.h **** } XMC_VADC_SR_t;
 337:N:/EECS 473/Myoelectric/myoelectric/Libraries/XMCLib/inc\xmc_vadc.h **** 
 338:N:/EECS 473/Myoelectric/myoelectric/Libraries/XMCLib/inc\xmc_vadc.h **** /**
 339:N:/EECS 473/Myoelectric/myoelectric/Libraries/XMCLib/inc\xmc_vadc.h ****  *  Defines the mode of operation of a channel, when an ongoing conversion gets interrupted in betw
 340:N:/EECS 473/Myoelectric/myoelectric/Libraries/XMCLib/inc\xmc_vadc.h ****  *  Use @ref XMC_VADC_STARTMODE_t for this enumeration.
 341:N:/EECS 473/Myoelectric/myoelectric/Libraries/XMCLib/inc\xmc_vadc.h ****  */
 342:N:/EECS 473/Myoelectric/myoelectric/Libraries/XMCLib/inc\xmc_vadc.h **** typedef enum XMC_VADC_STARTMODE
 343:N:/EECS 473/Myoelectric/myoelectric/Libraries/XMCLib/inc\xmc_vadc.h **** {
 344:N:/EECS 473/Myoelectric/myoelectric/Libraries/XMCLib/inc\xmc_vadc.h ****   XMC_VADC_STARTMODE_WFS = 0, /**< An ongoing conversion completes without interruption */
 345:N:/EECS 473/Myoelectric/myoelectric/Libraries/XMCLib/inc\xmc_vadc.h ****   XMC_VADC_STARTMODE_CIR,     /**< An ongoing conversion can be interrupted and resumed later*/
 346:N:/EECS 473/Myoelectric/myoelectric/Libraries/XMCLib/inc\xmc_vadc.h ****   XMC_VADC_STARTMODE_CNR     /**< An ongoing conversion can be interrupted and never resumed */
 347:N:/EECS 473/Myoelectric/myoelectric/Libraries/XMCLib/inc\xmc_vadc.h **** } XMC_VADC_STARTMODE_t;
 348:N:/EECS 473/Myoelectric/myoelectric/Libraries/XMCLib/inc\xmc_vadc.h **** 
 349:N:/EECS 473/Myoelectric/myoelectric/Libraries/XMCLib/inc\xmc_vadc.h **** /**
 350:N:/EECS 473/Myoelectric/myoelectric/Libraries/XMCLib/inc\xmc_vadc.h ****  *  Defines the edge sensitivity of the trigger signal which can assert a conversion.
 351:N:/EECS 473/Myoelectric/myoelectric/Libraries/XMCLib/inc\xmc_vadc.h ****  *  Use @ref XMC_VADC_TRIGGER_EDGE_t for this enumeration.
 352:N:/EECS 473/Myoelectric/myoelectric/Libraries/XMCLib/inc\xmc_vadc.h ****  */
 353:N:/EECS 473/Myoelectric/myoelectric/Libraries/XMCLib/inc\xmc_vadc.h **** typedef enum XMC_VADC_TRIGGER_EDGE
 354:N:/EECS 473/Myoelectric/myoelectric/Libraries/XMCLib/inc\xmc_vadc.h **** {
 355:N:/EECS 473/Myoelectric/myoelectric/Libraries/XMCLib/inc\xmc_vadc.h ****   XMC_VADC_TRIGGER_EDGE_NONE = 0, /**< No external trigger. Conversion request can be asserted by s
 356:N:/EECS 473/Myoelectric/myoelectric/Libraries/XMCLib/inc\xmc_vadc.h ****   XMC_VADC_TRIGGER_EDGE_FALLING,  /**< The falling edge of the external trigger can assert conversi
 357:N:/EECS 473/Myoelectric/myoelectric/Libraries/XMCLib/inc\xmc_vadc.h ****   XMC_VADC_TRIGGER_EDGE_RISING,   /**< The rising edge of the external trigger can assert conversio
 358:N:/EECS 473/Myoelectric/myoelectric/Libraries/XMCLib/inc\xmc_vadc.h ****   XMC_VADC_TRIGGER_EDGE_ANY       /**< Both the edges can assert conversion request */
 359:N:/EECS 473/Myoelectric/myoelectric/Libraries/XMCLib/inc\xmc_vadc.h **** } XMC_VADC_TRIGGER_EDGE_t;
 360:N:/EECS 473/Myoelectric/myoelectric/Libraries/XMCLib/inc\xmc_vadc.h **** 
 361:N:/EECS 473/Myoelectric/myoelectric/Libraries/XMCLib/inc\xmc_vadc.h **** /**
 362:N:/EECS 473/Myoelectric/myoelectric/Libraries/XMCLib/inc\xmc_vadc.h ****  *  Defines the external trigger input selection possibilities, to assert a conversion. Refer the V
 363:N:/EECS 473/Myoelectric/myoelectric/Libraries/XMCLib/inc\xmc_vadc.h ****  *  section of the reference manual for details of peripherals which can be used. Also refer xmc_va
 364:N:/EECS 473/Myoelectric/myoelectric/Libraries/XMCLib/inc\xmc_vadc.h ****  *  detailed definitions of the peripherals which can take the control of these enumeration items.
 365:N:/EECS 473/Myoelectric/myoelectric/Libraries/XMCLib/inc\xmc_vadc.h ****  *  Use @ref XMC_VADC_TRIGGER_INPUT_SELECT_t for this enumeration.
 366:N:/EECS 473/Myoelectric/myoelectric/Libraries/XMCLib/inc\xmc_vadc.h ****  */
 367:N:/EECS 473/Myoelectric/myoelectric/Libraries/XMCLib/inc\xmc_vadc.h **** typedef enum XMC_VADC_TRIGGER_INPUT_SELECT
 368:N:/EECS 473/Myoelectric/myoelectric/Libraries/XMCLib/inc\xmc_vadc.h **** {
 369:N:/EECS 473/Myoelectric/myoelectric/Libraries/XMCLib/inc\xmc_vadc.h ****   XMC_VADC_REQ_TR_A = 0, /**< Trigger select signal A */
 370:N:/EECS 473/Myoelectric/myoelectric/Libraries/XMCLib/inc\xmc_vadc.h ****   XMC_VADC_REQ_TR_B,     /**< Trigger select signal B */
 371:N:/EECS 473/Myoelectric/myoelectric/Libraries/XMCLib/inc\xmc_vadc.h ****   XMC_VADC_REQ_TR_C,     /**< Trigger select signal C */
 372:N:/EECS 473/Myoelectric/myoelectric/Libraries/XMCLib/inc\xmc_vadc.h ****   XMC_VADC_REQ_TR_D,     /**< Trigger select signal D */
 373:N:/EECS 473/Myoelectric/myoelectric/Libraries/XMCLib/inc\xmc_vadc.h ****   XMC_VADC_REQ_TR_E,     /**< Trigger select signal E */
 374:N:/EECS 473/Myoelectric/myoelectric/Libraries/XMCLib/inc\xmc_vadc.h ****   XMC_VADC_REQ_TR_F,     /**< Trigger select signal F */
 375:N:/EECS 473/Myoelectric/myoelectric/Libraries/XMCLib/inc\xmc_vadc.h ****   XMC_VADC_REQ_TR_G,     /**< Trigger select signal G */
 376:N:/EECS 473/Myoelectric/myoelectric/Libraries/XMCLib/inc\xmc_vadc.h ****   XMC_VADC_REQ_TR_H,     /**< Trigger select signal H */
 377:N:/EECS 473/Myoelectric/myoelectric/Libraries/XMCLib/inc\xmc_vadc.h ****   XMC_VADC_REQ_TR_I,     /**< Trigger select signal I */
 378:N:/EECS 473/Myoelectric/myoelectric/Libraries/XMCLib/inc\xmc_vadc.h ****   XMC_VADC_REQ_TR_J,     /**< Trigger select signal J */
 379:N:/EECS 473/Myoelectric/myoelectric/Libraries/XMCLib/inc\xmc_vadc.h ****   XMC_VADC_REQ_TR_K,     /**< Trigger select signal K */
 380:N:/EECS 473/Myoelectric/myoelectric/Libraries/XMCLib/inc\xmc_vadc.h ****   XMC_VADC_REQ_TR_L,     /**< Trigger select signal L */
 381:N:/EECS 473/Myoelectric/myoelectric/Libraries/XMCLib/inc\xmc_vadc.h ****   XMC_VADC_REQ_TR_M,     /**< Trigger select signal M */
 382:N:/EECS 473/Myoelectric/myoelectric/Libraries/XMCLib/inc\xmc_vadc.h ****   XMC_VADC_REQ_TR_N,     /**< Trigger select signal N */
 383:N:/EECS 473/Myoelectric/myoelectric/Libraries/XMCLib/inc\xmc_vadc.h ****   XMC_VADC_REQ_TR_O,     /**< Trigger select signal O */
 384:N:/EECS 473/Myoelectric/myoelectric/Libraries/XMCLib/inc\xmc_vadc.h ****   XMC_VADC_REQ_TR_P      /**< Trigger select signal P */
 385:N:/EECS 473/Myoelectric/myoelectric/Libraries/XMCLib/inc\xmc_vadc.h ****   
 386:N:/EECS 473/Myoelectric/myoelectric/Libraries/XMCLib/inc\xmc_vadc.h **** } XMC_VADC_TRIGGER_INPUT_SELECT_t;
 387:N:/EECS 473/Myoelectric/myoelectric/Libraries/XMCLib/inc\xmc_vadc.h **** 
 388:N:/EECS 473/Myoelectric/myoelectric/Libraries/XMCLib/inc\xmc_vadc.h **** /**
 389:N:/EECS 473/Myoelectric/myoelectric/Libraries/XMCLib/inc\xmc_vadc.h ****  *  Defines the external gating input selection possibilities, to gate the conversion requests. Ref
 390:N:/EECS 473/Myoelectric/myoelectric/Libraries/XMCLib/inc\xmc_vadc.h ****  *  interconnects section of the reference manual for details of peripherals which can be used. Als
 391:N:/EECS 473/Myoelectric/myoelectric/Libraries/XMCLib/inc\xmc_vadc.h ****  *  xmc_vadc_map.h file for detailed definitions of the peripherals which can take the control of t
 392:N:/EECS 473/Myoelectric/myoelectric/Libraries/XMCLib/inc\xmc_vadc.h ****  *  items. Use @ref XMC_VADC_GATE_INPUT_SELECT_t for this enumeration.
 393:N:/EECS 473/Myoelectric/myoelectric/Libraries/XMCLib/inc\xmc_vadc.h ****  */
 394:N:/EECS 473/Myoelectric/myoelectric/Libraries/XMCLib/inc\xmc_vadc.h **** typedef enum XMC_VADC_GATE_INPUT_SELECT
 395:N:/EECS 473/Myoelectric/myoelectric/Libraries/XMCLib/inc\xmc_vadc.h **** {
 396:N:/EECS 473/Myoelectric/myoelectric/Libraries/XMCLib/inc\xmc_vadc.h ****   XMC_VADC_REQ_GT_A = 0, /**< Gating select signal A */
 397:N:/EECS 473/Myoelectric/myoelectric/Libraries/XMCLib/inc\xmc_vadc.h ****   XMC_VADC_REQ_GT_B,     /**< Gating select signal B */
 398:N:/EECS 473/Myoelectric/myoelectric/Libraries/XMCLib/inc\xmc_vadc.h ****   XMC_VADC_REQ_GT_C,     /**< Gating select signal C */
 399:N:/EECS 473/Myoelectric/myoelectric/Libraries/XMCLib/inc\xmc_vadc.h ****   XMC_VADC_REQ_GT_D,     /**< Gating select signal D */
 400:N:/EECS 473/Myoelectric/myoelectric/Libraries/XMCLib/inc\xmc_vadc.h ****   XMC_VADC_REQ_GT_E,     /**< Gating select signal E */
 401:N:/EECS 473/Myoelectric/myoelectric/Libraries/XMCLib/inc\xmc_vadc.h ****   XMC_VADC_REQ_GT_F,     /**< Gating select signal F */
 402:N:/EECS 473/Myoelectric/myoelectric/Libraries/XMCLib/inc\xmc_vadc.h ****   XMC_VADC_REQ_GT_G,     /**< Gating select signal G */
 403:N:/EECS 473/Myoelectric/myoelectric/Libraries/XMCLib/inc\xmc_vadc.h ****   XMC_VADC_REQ_GT_H,     /**< Gating select signal H */
 404:N:/EECS 473/Myoelectric/myoelectric/Libraries/XMCLib/inc\xmc_vadc.h ****   XMC_VADC_REQ_GT_I,     /**< Gating select signal I */
 405:N:/EECS 473/Myoelectric/myoelectric/Libraries/XMCLib/inc\xmc_vadc.h ****   XMC_VADC_REQ_GT_J,     /**< Gating select signal J */
 406:N:/EECS 473/Myoelectric/myoelectric/Libraries/XMCLib/inc\xmc_vadc.h ****   XMC_VADC_REQ_GT_K,     /**< Gating select signal K */
 407:N:/EECS 473/Myoelectric/myoelectric/Libraries/XMCLib/inc\xmc_vadc.h ****   XMC_VADC_REQ_GT_L,     /**< Gating select signal L */
 408:N:/EECS 473/Myoelectric/myoelectric/Libraries/XMCLib/inc\xmc_vadc.h ****   XMC_VADC_REQ_GT_M,     /**< Gating select signal M */
 409:N:/EECS 473/Myoelectric/myoelectric/Libraries/XMCLib/inc\xmc_vadc.h ****   XMC_VADC_REQ_GT_N,     /**< Gating select signal N */
 410:N:/EECS 473/Myoelectric/myoelectric/Libraries/XMCLib/inc\xmc_vadc.h ****   XMC_VADC_REQ_GT_O,     /**< Gating select signal O */
 411:N:/EECS 473/Myoelectric/myoelectric/Libraries/XMCLib/inc\xmc_vadc.h ****   XMC_VADC_REQ_GT_P      /**< Gating select signal P */
 412:N:/EECS 473/Myoelectric/myoelectric/Libraries/XMCLib/inc\xmc_vadc.h ****   
 413:N:/EECS 473/Myoelectric/myoelectric/Libraries/XMCLib/inc\xmc_vadc.h **** } XMC_VADC_GATE_INPUT_SELECT_t;
 414:N:/EECS 473/Myoelectric/myoelectric/Libraries/XMCLib/inc\xmc_vadc.h **** 
 415:N:/EECS 473/Myoelectric/myoelectric/Libraries/XMCLib/inc\xmc_vadc.h **** /**
 416:N:/EECS 473/Myoelectric/myoelectric/Libraries/XMCLib/inc\xmc_vadc.h ****  * Defines the condition for gating the conversion requests. It can be used to set the ENGT field
 417:N:/EECS 473/Myoelectric/myoelectric/Libraries/XMCLib/inc\xmc_vadc.h ****  * of ASMR/BSMR/QMR register respectively for auto_scan/background_scan/queue request sources.
 418:N:/EECS 473/Myoelectric/myoelectric/Libraries/XMCLib/inc\xmc_vadc.h ****  * Use @ref XMC_VADC_GATEMODE_t for this enumeration.
 419:N:/EECS 473/Myoelectric/myoelectric/Libraries/XMCLib/inc\xmc_vadc.h ****  */
 420:N:/EECS 473/Myoelectric/myoelectric/Libraries/XMCLib/inc\xmc_vadc.h **** typedef enum XMC_VADC_GATEMODE
 421:N:/EECS 473/Myoelectric/myoelectric/Libraries/XMCLib/inc\xmc_vadc.h **** {
 422:N:/EECS 473/Myoelectric/myoelectric/Libraries/XMCLib/inc\xmc_vadc.h ****   XMC_VADC_GATEMODE_BLOCK = 0,  /**< External triggers are permanently blocked */
 423:N:/EECS 473/Myoelectric/myoelectric/Libraries/XMCLib/inc\xmc_vadc.h ****   XMC_VADC_GATEMODE_IGNORE,     /**< External triggers are unconditionally passed */
 424:N:/EECS 473/Myoelectric/myoelectric/Libraries/XMCLib/inc\xmc_vadc.h ****   XMC_VADC_GATEMODE_ACTIVEHIGH, /**< External trigger is passed only if the gate signal is high */
 425:N:/EECS 473/Myoelectric/myoelectric/Libraries/XMCLib/inc\xmc_vadc.h ****   XMC_VADC_GATEMODE_ACTIVELOW  /**< External trigger is passed only if the gate signal is low */
 426:N:/EECS 473/Myoelectric/myoelectric/Libraries/XMCLib/inc\xmc_vadc.h **** } XMC_VADC_GATEMODE_t;
 427:N:/EECS 473/Myoelectric/myoelectric/Libraries/XMCLib/inc\xmc_vadc.h **** 
 428:N:/EECS 473/Myoelectric/myoelectric/Libraries/XMCLib/inc\xmc_vadc.h **** /**
 429:N:/EECS 473/Myoelectric/myoelectric/Libraries/XMCLib/inc\xmc_vadc.h ****  * Defines the conversion result handling mode. Use @ref XMC_VADC_DMM_t for this enumeration.
 430:N:/EECS 473/Myoelectric/myoelectric/Libraries/XMCLib/inc\xmc_vadc.h ****  */
 431:N:/EECS 473/Myoelectric/myoelectric/Libraries/XMCLib/inc\xmc_vadc.h **** typedef enum XMC_VADC_DMM
 432:N:/EECS 473/Myoelectric/myoelectric/Libraries/XMCLib/inc\xmc_vadc.h **** {
 433:N:/EECS 473/Myoelectric/myoelectric/Libraries/XMCLib/inc\xmc_vadc.h ****   XMC_VADC_DMM_REDUCTION_MODE = 0, /**< Standard Data reduction mode*/
 434:N:/EECS 473/Myoelectric/myoelectric/Libraries/XMCLib/inc\xmc_vadc.h ****   XMC_VADC_DMM_FILTERING_MODE,     /**< Provide option to select Finite Impulse Response Filter (FI
 435:N:/EECS 473/Myoelectric/myoelectric/Libraries/XMCLib/inc\xmc_vadc.h ****                                         Infinite Impulse Response Filter (IIR)*/
 436:N:/EECS 473/Myoelectric/myoelectric/Libraries/XMCLib/inc\xmc_vadc.h ****   XMC_VADC_DMM_DIFFERENCE_MODE,    /**< Difference mode is selected*/
 437:N:/EECS 473/Myoelectric/myoelectric/Libraries/XMCLib/inc\xmc_vadc.h **** } XMC_VADC_DMM_t;
 438:N:/EECS 473/Myoelectric/myoelectric/Libraries/XMCLib/inc\xmc_vadc.h **** 
 439:N:/EECS 473/Myoelectric/myoelectric/Libraries/XMCLib/inc\xmc_vadc.h **** /**
 440:N:/EECS 473/Myoelectric/myoelectric/Libraries/XMCLib/inc\xmc_vadc.h ****  *  Defines the conversion mode. It defines the resolution of conversion. Use XMC_VADC_CONVMODE_t f
 441:N:/EECS 473/Myoelectric/myoelectric/Libraries/XMCLib/inc\xmc_vadc.h ****  */
 442:N:/EECS 473/Myoelectric/myoelectric/Libraries/XMCLib/inc\xmc_vadc.h **** typedef enum XMC_VADC_CONVMODE
 443:N:/EECS 473/Myoelectric/myoelectric/Libraries/XMCLib/inc\xmc_vadc.h **** {
 444:N:/EECS 473/Myoelectric/myoelectric/Libraries/XMCLib/inc\xmc_vadc.h ****   XMC_VADC_CONVMODE_12BIT       = 0,  /**< Results of conversion are 12bits wide */
 445:N:/EECS 473/Myoelectric/myoelectric/Libraries/XMCLib/inc\xmc_vadc.h ****   XMC_VADC_CONVMODE_10BIT       = 1,  /**< Results of conversion are 10bits wide */
 446:N:/EECS 473/Myoelectric/myoelectric/Libraries/XMCLib/inc\xmc_vadc.h ****   XMC_VADC_CONVMODE_8BIT        = 2,  /**< Results of conversion are 8bits wide */
 447:N:/EECS 473/Myoelectric/myoelectric/Libraries/XMCLib/inc\xmc_vadc.h ****   XMC_VADC_CONVMODE_FASTCOMPARE = 5  /**< Input signal compared with a preset range */
 448:N:/EECS 473/Myoelectric/myoelectric/Libraries/XMCLib/inc\xmc_vadc.h **** } XMC_VADC_CONVMODE_t;
 449:N:/EECS 473/Myoelectric/myoelectric/Libraries/XMCLib/inc\xmc_vadc.h **** 
 450:N:/EECS 473/Myoelectric/myoelectric/Libraries/XMCLib/inc\xmc_vadc.h **** /**
 451:N:/EECS 473/Myoelectric/myoelectric/Libraries/XMCLib/inc\xmc_vadc.h ****  *  Defines the output of a fast compare mode. Use @ref XMC_VADC_FAST_COMPARE_t for
 452:N:/EECS 473/Myoelectric/myoelectric/Libraries/XMCLib/inc\xmc_vadc.h ****  *  this enumeration.
 453:N:/EECS 473/Myoelectric/myoelectric/Libraries/XMCLib/inc\xmc_vadc.h ****  */
 454:N:/EECS 473/Myoelectric/myoelectric/Libraries/XMCLib/inc\xmc_vadc.h **** typedef enum XMC_VADC_FAST_COMPARE
 455:N:/EECS 473/Myoelectric/myoelectric/Libraries/XMCLib/inc\xmc_vadc.h **** {
 456:N:/EECS 473/Myoelectric/myoelectric/Libraries/XMCLib/inc\xmc_vadc.h ****   XMC_VADC_FAST_COMPARE_LOW = 0, /**< Input lower than than programmed reference */
 457:N:/EECS 473/Myoelectric/myoelectric/Libraries/XMCLib/inc\xmc_vadc.h ****   XMC_VADC_FAST_COMPARE_HIGH ,   /**< Input higher than than programmed reference */
 458:N:/EECS 473/Myoelectric/myoelectric/Libraries/XMCLib/inc\xmc_vadc.h ****   XMC_VADC_FAST_COMPARE_UNKNOWN  /**< Unknown, Conversion probably still ongoing */
 459:N:/EECS 473/Myoelectric/myoelectric/Libraries/XMCLib/inc\xmc_vadc.h **** } XMC_VADC_FAST_COMPARE_t;
 460:N:/EECS 473/Myoelectric/myoelectric/Libraries/XMCLib/inc\xmc_vadc.h ****  
 461:N:/EECS 473/Myoelectric/myoelectric/Libraries/XMCLib/inc\xmc_vadc.h **** /**
 462:N:/EECS 473/Myoelectric/myoelectric/Libraries/XMCLib/inc\xmc_vadc.h ****  * Defines the type of scan request source to be used. It can choose between auto scan and backgrou
 463:N:/EECS 473/Myoelectric/myoelectric/Libraries/XMCLib/inc\xmc_vadc.h ****  * source methods. Use @ref XMC_VADC_SCAN_TYPE_t for this enumeration.
 464:N:/EECS 473/Myoelectric/myoelectric/Libraries/XMCLib/inc\xmc_vadc.h ****  */
 465:N:/EECS 473/Myoelectric/myoelectric/Libraries/XMCLib/inc\xmc_vadc.h **** typedef enum XMC_VADC_SCAN_TYPE
 466:N:/EECS 473/Myoelectric/myoelectric/Libraries/XMCLib/inc\xmc_vadc.h **** {
 467:N:/EECS 473/Myoelectric/myoelectric/Libraries/XMCLib/inc\xmc_vadc.h ****   XMC_VADC_SCAN_TYPE_GROUPSCAN = 0, /**< Auto scan mode of operation selected. Also called as Group
 468:N:/EECS 473/Myoelectric/myoelectric/Libraries/XMCLib/inc\xmc_vadc.h ****   XMC_VADC_SCAN_TYPE_BACKGROUND    /**< Background scan mode of operation selected. Also called as 
 469:N:/EECS 473/Myoelectric/myoelectric/Libraries/XMCLib/inc\xmc_vadc.h **** } XMC_VADC_SCAN_TYPE_t;
 470:N:/EECS 473/Myoelectric/myoelectric/Libraries/XMCLib/inc\xmc_vadc.h **** 
 471:N:/EECS 473/Myoelectric/myoelectric/Libraries/XMCLib/inc\xmc_vadc.h **** /**
 472:N:/EECS 473/Myoelectric/myoelectric/Libraries/XMCLib/inc\xmc_vadc.h ****  * Defines the behavior of load event for the scan request source. Use @ref XMC_VADC_SCAN_LOAD_t fo
 473:N:/EECS 473/Myoelectric/myoelectric/Libraries/XMCLib/inc\xmc_vadc.h ****  */
 474:N:/EECS 473/Myoelectric/myoelectric/Libraries/XMCLib/inc\xmc_vadc.h **** typedef enum XMC_VADC_SCAN_LOAD
 475:N:/EECS 473/Myoelectric/myoelectric/Libraries/XMCLib/inc\xmc_vadc.h **** {
 476:N:/EECS 473/Myoelectric/myoelectric/Libraries/XMCLib/inc\xmc_vadc.h ****   XMC_VADC_SCAN_LOAD_OVERWRITE = 0, /**< The old set of channels is discarded in favor of the new s
 477:N:/EECS 473/Myoelectric/myoelectric/Libraries/XMCLib/inc\xmc_vadc.h ****                                          awaiting conversion */
 478:N:/EECS 473/Myoelectric/myoelectric/Libraries/XMCLib/inc\xmc_vadc.h ****   XMC_VADC_SCAN_LOAD_COMBINE       /**< The new set of channels are combined with the pending chann
 479:N:/EECS 473/Myoelectric/myoelectric/Libraries/XMCLib/inc\xmc_vadc.h ****                                          previous set */
 480:N:/EECS 473/Myoelectric/myoelectric/Libraries/XMCLib/inc\xmc_vadc.h **** } XMC_VADC_SCAN_LOAD_t;
 481:N:/EECS 473/Myoelectric/myoelectric/Libraries/XMCLib/inc\xmc_vadc.h **** 
 482:N:/EECS 473/Myoelectric/myoelectric/Libraries/XMCLib/inc\xmc_vadc.h **** /**
 483:N:/EECS 473/Myoelectric/myoelectric/Libraries/XMCLib/inc\xmc_vadc.h ****  * Defines the conversion classes that can be selected for each channel. The enumeration members ho
 484:N:/EECS 473/Myoelectric/myoelectric/Libraries/XMCLib/inc\xmc_vadc.h ****  * global classes. The conversion classes decides the properties of conversion, like resolution, sa
 485:N:/EECS 473/Myoelectric/myoelectric/Libraries/XMCLib/inc\xmc_vadc.h ****  * Use @ref XMC_VADC_CHANNEL_CONV_t for this enumeration.
 486:N:/EECS 473/Myoelectric/myoelectric/Libraries/XMCLib/inc\xmc_vadc.h ****  */
 487:N:/EECS 473/Myoelectric/myoelectric/Libraries/XMCLib/inc\xmc_vadc.h **** 
 488:N:/EECS 473/Myoelectric/myoelectric/Libraries/XMCLib/inc\xmc_vadc.h **** typedef enum XMC_VADC_CHANNEL_CONV
 489:N:/EECS 473/Myoelectric/myoelectric/Libraries/XMCLib/inc\xmc_vadc.h **** {
 490:N:/EECS 473/Myoelectric/myoelectric/Libraries/XMCLib/inc\xmc_vadc.h ****   XMC_VADC_CHANNEL_CONV_GROUP_CLASS0 = 0, /**< Conversion property set-0 specific to the group */
 491:N:/EECS 473/Myoelectric/myoelectric/Libraries/XMCLib/inc\xmc_vadc.h ****   XMC_VADC_CHANNEL_CONV_GROUP_CLASS1,     /**< Conversion property set-1 specific to the group */
 492:N:/EECS 473/Myoelectric/myoelectric/Libraries/XMCLib/inc\xmc_vadc.h ****   XMC_VADC_CHANNEL_CONV_GLOBAL_CLASS0,    /**< Conversion property set-0, Module wide */
 493:N:/EECS 473/Myoelectric/myoelectric/Libraries/XMCLib/inc\xmc_vadc.h ****   XMC_VADC_CHANNEL_CONV_GLOBAL_CLASS1    /**< Conversion property set-1, Module wide */
 494:N:/EECS 473/Myoelectric/myoelectric/Libraries/XMCLib/inc\xmc_vadc.h **** } XMC_VADC_CHANNEL_CONV_t;
 495:N:/EECS 473/Myoelectric/myoelectric/Libraries/XMCLib/inc\xmc_vadc.h **** 
 496:N:/EECS 473/Myoelectric/myoelectric/Libraries/XMCLib/inc\xmc_vadc.h **** /**
 497:N:/EECS 473/Myoelectric/myoelectric/Libraries/XMCLib/inc\xmc_vadc.h ****  * Defines the references to boundary values used for limit checking feature. Each of these can be 
 498:N:/EECS 473/Myoelectric/myoelectric/Libraries/XMCLib/inc\xmc_vadc.h ****  * either an upper bound or a lower bound. Use @ref XMC_VADC_CHANNEL_BOUNDARY_t for this enumeratio
 499:N:/EECS 473/Myoelectric/myoelectric/Libraries/XMCLib/inc\xmc_vadc.h ****  */
 500:N:/EECS 473/Myoelectric/myoelectric/Libraries/XMCLib/inc\xmc_vadc.h **** 
 501:N:/EECS 473/Myoelectric/myoelectric/Libraries/XMCLib/inc\xmc_vadc.h **** typedef enum XMC_VADC_CHANNEL_BOUNDARY
 502:N:/EECS 473/Myoelectric/myoelectric/Libraries/XMCLib/inc\xmc_vadc.h **** {
 503:N:/EECS 473/Myoelectric/myoelectric/Libraries/XMCLib/inc\xmc_vadc.h ****   XMC_VADC_CHANNEL_BOUNDARY_GROUP_BOUND0 = 0, /**< Group specific Boundary-0 value */
 504:N:/EECS 473/Myoelectric/myoelectric/Libraries/XMCLib/inc\xmc_vadc.h ****   XMC_VADC_CHANNEL_BOUNDARY_GROUP_BOUND1,     /**< Group specific Boundary-1 value */
 505:N:/EECS 473/Myoelectric/myoelectric/Libraries/XMCLib/inc\xmc_vadc.h ****   XMC_VADC_CHANNEL_BOUNDARY_GLOBAL_BOUND0,    /**< Module wide Boundary-0 value */
 506:N:/EECS 473/Myoelectric/myoelectric/Libraries/XMCLib/inc\xmc_vadc.h ****   XMC_VADC_CHANNEL_BOUNDARY_GLOBAL_BOUND1    /**< Module wide Boundary-1 value */
 507:N:/EECS 473/Myoelectric/myoelectric/Libraries/XMCLib/inc\xmc_vadc.h **** } XMC_VADC_CHANNEL_BOUNDARY_t;
 508:N:/EECS 473/Myoelectric/myoelectric/Libraries/XMCLib/inc\xmc_vadc.h **** 
 509:N:/EECS 473/Myoelectric/myoelectric/Libraries/XMCLib/inc\xmc_vadc.h **** /**
 510:N:/EECS 473/Myoelectric/myoelectric/Libraries/XMCLib/inc\xmc_vadc.h ****  * Defines the voltage which the capacitor is charged to. Used in Broken wire detection feature. Us
 511:N:/EECS 473/Myoelectric/myoelectric/Libraries/XMCLib/inc\xmc_vadc.h ****  * @ref XMC_VADC_CHANNEL_BWDCH_t for this enumeration.
 512:N:/EECS 473/Myoelectric/myoelectric/Libraries/XMCLib/inc\xmc_vadc.h ****  */
 513:N:/EECS 473/Myoelectric/myoelectric/Libraries/XMCLib/inc\xmc_vadc.h **** typedef enum XMC_VADC_CHANNEL_BWDCH
 514:N:/EECS 473/Myoelectric/myoelectric/Libraries/XMCLib/inc\xmc_vadc.h **** {
 515:N:/EECS 473/Myoelectric/myoelectric/Libraries/XMCLib/inc\xmc_vadc.h ****   XMC_VADC_CHANNEL_BWDCH_VAGND = 0, /**< Capacitor pre-charged to ground*/
 516:N:/EECS 473/Myoelectric/myoelectric/Libraries/XMCLib/inc\xmc_vadc.h ****   XMC_VADC_CHANNEL_BWDCH_VAREF     /**< Capacitor pre-charged to reference voltage*/
 517:N:/EECS 473/Myoelectric/myoelectric/Libraries/XMCLib/inc\xmc_vadc.h **** } XMC_VADC_CHANNEL_BWDCH_t;
 518:N:/EECS 473/Myoelectric/myoelectric/Libraries/XMCLib/inc\xmc_vadc.h **** 
 519:N:/EECS 473/Myoelectric/myoelectric/Libraries/XMCLib/inc\xmc_vadc.h **** /**
 520:N:/EECS 473/Myoelectric/myoelectric/Libraries/XMCLib/inc\xmc_vadc.h ****  *   Defines the criteria for event generation by the channel. Use @ref XMC_VADC_CHANNEL_EVGEN_t fo
 521:N:/EECS 473/Myoelectric/myoelectric/Libraries/XMCLib/inc\xmc_vadc.h ****  */
 522:N:/EECS 473/Myoelectric/myoelectric/Libraries/XMCLib/inc\xmc_vadc.h **** typedef enum XMC_VADC_CHANNEL_EVGEN
 523:N:/EECS 473/Myoelectric/myoelectric/Libraries/XMCLib/inc\xmc_vadc.h **** {
 524:N:/EECS 473/Myoelectric/myoelectric/Libraries/XMCLib/inc\xmc_vadc.h ****   XMC_VADC_CHANNEL_EVGEN_NEVER     = 0,  /**< No event generated */
 525:N:/EECS 473/Myoelectric/myoelectric/Libraries/XMCLib/inc\xmc_vadc.h ****   XMC_VADC_CHANNEL_EVGEN_INBOUND   = 1U, /**< Event generated when the result is within the normal 
 526:N:/EECS 473/Myoelectric/myoelectric/Libraries/XMCLib/inc\xmc_vadc.h ****   XMC_VADC_CHANNEL_EVGEN_COMPHIGH  = 1U, /**< Event generated when the result of fast compare opera
 527:N:/EECS 473/Myoelectric/myoelectric/Libraries/XMCLib/inc\xmc_vadc.h ****   XMC_VADC_CHANNEL_EVGEN_OUTBOUND  = 2U, /**< Event generated when the result is outside the normal
 528:N:/EECS 473/Myoelectric/myoelectric/Libraries/XMCLib/inc\xmc_vadc.h ****   XMC_VADC_CHANNEL_EVGEN_COMPLOW   = 2U, /**< Event generated when the result result of fast compar
 529:N:/EECS 473/Myoelectric/myoelectric/Libraries/XMCLib/inc\xmc_vadc.h ****   XMC_VADC_CHANNEL_EVGEN_ALWAYS    = 3U /**< Event generated always after conversion - unconditiona
 530:N:/EECS 473/Myoelectric/myoelectric/Libraries/XMCLib/inc\xmc_vadc.h **** } XMC_VADC_CHANNEL_EVGEN_t;
 531:N:/EECS 473/Myoelectric/myoelectric/Libraries/XMCLib/inc\xmc_vadc.h **** 
 532:N:/EECS 473/Myoelectric/myoelectric/Libraries/XMCLib/inc\xmc_vadc.h **** /**
 533:N:/EECS 473/Myoelectric/myoelectric/Libraries/XMCLib/inc\xmc_vadc.h ****  * Defines the reference voltage selection for conversion. Use @ref XMC_VADC_CHANNEL_REF_t for this
 534:N:/EECS 473/Myoelectric/myoelectric/Libraries/XMCLib/inc\xmc_vadc.h ****  */
 535:N:/EECS 473/Myoelectric/myoelectric/Libraries/XMCLib/inc\xmc_vadc.h **** typedef enum XMC_VADC_CHANNEL_REF
 536:N:/EECS 473/Myoelectric/myoelectric/Libraries/XMCLib/inc\xmc_vadc.h **** {
 537:N:/EECS 473/Myoelectric/myoelectric/Libraries/XMCLib/inc\xmc_vadc.h ****   XMC_VADC_CHANNEL_REF_INTREF = 0, /**< Internal VARef */
 538:N:/EECS 473/Myoelectric/myoelectric/Libraries/XMCLib/inc\xmc_vadc.h ****   XMC_VADC_CHANNEL_REF_ALT_CH0    /**< External voltage available on Channel-0 of the perticular gr
 539:N:/EECS 473/Myoelectric/myoelectric/Libraries/XMCLib/inc\xmc_vadc.h **** } XMC_VADC_CHANNEL_REF_t;
 540:N:/EECS 473/Myoelectric/myoelectric/Libraries/XMCLib/inc\xmc_vadc.h ****  
 541:N:/EECS 473/Myoelectric/myoelectric/Libraries/XMCLib/inc\xmc_vadc.h **** /**
 542:N:/EECS 473/Myoelectric/myoelectric/Libraries/XMCLib/inc\xmc_vadc.h ****  * Defines the criteria for boundary flag assertion. Use @ref XMC_VADC_CHANNEL_BOUNDARY_CONDITION_t
 543:N:/EECS 473/Myoelectric/myoelectric/Libraries/XMCLib/inc\xmc_vadc.h ****  * enumeration.
 544:N:/EECS 473/Myoelectric/myoelectric/Libraries/XMCLib/inc\xmc_vadc.h ****  */
 545:N:/EECS 473/Myoelectric/myoelectric/Libraries/XMCLib/inc\xmc_vadc.h **** typedef enum XMC_VADC_CHANNEL_BOUNDARY_CONDITION
 546:N:/EECS 473/Myoelectric/myoelectric/Libraries/XMCLib/inc\xmc_vadc.h **** {
 547:N:/EECS 473/Myoelectric/myoelectric/Libraries/XMCLib/inc\xmc_vadc.h ****   XMC_VADC_CHANNEL_BOUNDARY_CONDITION_ABOVE_BAND = 0, /**< Set Boundary condition criteria to asser
 548:N:/EECS 473/Myoelectric/myoelectric/Libraries/XMCLib/inc\xmc_vadc.h ****   XMC_VADC_CHANNEL_BOUNDARY_CONDITION_BELOW_BAND     /**< Set Boundary condition criteria to assert
 549:N:/EECS 473/Myoelectric/myoelectric/Libraries/XMCLib/inc\xmc_vadc.h **** } XMC_VADC_CHANNEL_BOUNDARY_CONDITION_t;
 550:N:/EECS 473/Myoelectric/myoelectric/Libraries/XMCLib/inc\xmc_vadc.h ****  
 551:N:/EECS 473/Myoelectric/myoelectric/Libraries/XMCLib/inc\xmc_vadc.h **** /**
 552:N:/EECS 473/Myoelectric/myoelectric/Libraries/XMCLib/inc\xmc_vadc.h ****  * Defines the event which can lead to a global service request assertion. Use @ref XMC_VADC_GLOBAL
 553:N:/EECS 473/Myoelectric/myoelectric/Libraries/XMCLib/inc\xmc_vadc.h ****  * enumeration.
 554:N:/EECS 473/Myoelectric/myoelectric/Libraries/XMCLib/inc\xmc_vadc.h ****  */
 555:N:/EECS 473/Myoelectric/myoelectric/Libraries/XMCLib/inc\xmc_vadc.h **** typedef enum XMC_VADC_GLOBAL_EVENT
 556:N:/EECS 473/Myoelectric/myoelectric/Libraries/XMCLib/inc\xmc_vadc.h **** {
 557:N:/EECS 473/Myoelectric/myoelectric/Libraries/XMCLib/inc\xmc_vadc.h ****   XMC_VADC_GLOBAL_EVENT_BKGNDSOURCE = VADC_GLOBEFLAG_SEVGLB_Msk, /**< Background scan request sourc
 558:N:/EECS 473/Myoelectric/myoelectric/Libraries/XMCLib/inc\xmc_vadc.h ****   XMC_VADC_GLOBAL_EVENT_RESULT      = VADC_GLOBEFLAG_REVGLB_Msk  /**< Global result event */
 559:N:/EECS 473/Myoelectric/myoelectric/Libraries/XMCLib/inc\xmc_vadc.h **** } XMC_VADC_GLOBAL_EVENT_t;
 560:N:/EECS 473/Myoelectric/myoelectric/Libraries/XMCLib/inc\xmc_vadc.h ****  
 561:N:/EECS 473/Myoelectric/myoelectric/Libraries/XMCLib/inc\xmc_vadc.h **** /**
 562:N:/EECS 473/Myoelectric/myoelectric/Libraries/XMCLib/inc\xmc_vadc.h ****  * Defines the power modes of a VADC Group. Use @ref XMC_VADC_GROUP_POWERMODE_t for this enumeratio
 563:N:/EECS 473/Myoelectric/myoelectric/Libraries/XMCLib/inc\xmc_vadc.h ****  */
 564:N:/EECS 473/Myoelectric/myoelectric/Libraries/XMCLib/inc\xmc_vadc.h **** typedef enum XMC_VADC_GROUP_POWERMODE
 565:N:/EECS 473/Myoelectric/myoelectric/Libraries/XMCLib/inc\xmc_vadc.h **** {
 566:N:/EECS 473/Myoelectric/myoelectric/Libraries/XMCLib/inc\xmc_vadc.h ****   XMC_VADC_GROUP_POWERMODE_OFF       = 0, /**< Group is powered down */
 567:N:/EECS 473/Myoelectric/myoelectric/Libraries/XMCLib/inc\xmc_vadc.h ****   XMC_VADC_GROUP_POWERMODE_RESERVED1,     /**< Reserved */
 568:N:/EECS 473/Myoelectric/myoelectric/Libraries/XMCLib/inc\xmc_vadc.h ****   XMC_VADC_GROUP_POWERMODE_RESERVED2,     /**< Reserved */
 569:N:/EECS 473/Myoelectric/myoelectric/Libraries/XMCLib/inc\xmc_vadc.h ****   XMC_VADC_GROUP_POWERMODE_NORMAL        /**< Group is powered up */
 570:N:/EECS 473/Myoelectric/myoelectric/Libraries/XMCLib/inc\xmc_vadc.h **** } XMC_VADC_GROUP_POWERMODE_t;
 571:N:/EECS 473/Myoelectric/myoelectric/Libraries/XMCLib/inc\xmc_vadc.h **** 
 572:N:/EECS 473/Myoelectric/myoelectric/Libraries/XMCLib/inc\xmc_vadc.h **** /**
 573:N:/EECS 473/Myoelectric/myoelectric/Libraries/XMCLib/inc\xmc_vadc.h ****  *  Defines the status of a VADC group (also known as kernel). Use @ref XMC_VADC_GROUP_STATE_t for 
 574:N:/EECS 473/Myoelectric/myoelectric/Libraries/XMCLib/inc\xmc_vadc.h ****  */
 575:N:/EECS 473/Myoelectric/myoelectric/Libraries/XMCLib/inc\xmc_vadc.h **** typedef enum XMC_VADC_GROUP_STATE
 576:N:/EECS 473/Myoelectric/myoelectric/Libraries/XMCLib/inc\xmc_vadc.h **** {
 577:N:/EECS 473/Myoelectric/myoelectric/Libraries/XMCLib/inc\xmc_vadc.h ****   XMC_VADC_GROUP_STATE_IDLE = 0, /**< Idle and can convert if requested */
 578:N:/EECS 473/Myoelectric/myoelectric/Libraries/XMCLib/inc\xmc_vadc.h ****   XMC_VADC_GROUP_STATE_BUSY      /**< Busy with an ongoing conversion */
 579:N:/EECS 473/Myoelectric/myoelectric/Libraries/XMCLib/inc\xmc_vadc.h **** } XMC_VADC_GROUP_STATE_t;
 580:N:/EECS 473/Myoelectric/myoelectric/Libraries/XMCLib/inc\xmc_vadc.h **** 
 581:N:/EECS 473/Myoelectric/myoelectric/Libraries/XMCLib/inc\xmc_vadc.h **** /**
 582:N:/EECS 473/Myoelectric/myoelectric/Libraries/XMCLib/inc\xmc_vadc.h ****  *  Defines the reference to sample time and conversion mode settings. Use @ref XMC_VADC_GROUP_CONV
 583:N:/EECS 473/Myoelectric/myoelectric/Libraries/XMCLib/inc\xmc_vadc.h ****  *  enumeration.
 584:N:/EECS 473/Myoelectric/myoelectric/Libraries/XMCLib/inc\xmc_vadc.h ****  */
 585:N:/EECS 473/Myoelectric/myoelectric/Libraries/XMCLib/inc\xmc_vadc.h **** typedef enum XMC_VADC_GROUP_CONV
 586:N:/EECS 473/Myoelectric/myoelectric/Libraries/XMCLib/inc\xmc_vadc.h **** {
 587:N:/EECS 473/Myoelectric/myoelectric/Libraries/XMCLib/inc\xmc_vadc.h ****   XMC_VADC_GROUP_CONV_STD = 0, /**< Settings pertaining to channels directly attached to VADC modul
 588:N:/EECS 473/Myoelectric/myoelectric/Libraries/XMCLib/inc\xmc_vadc.h ****   XMC_VADC_GROUP_CONV_EMUX    /**< Settings pertaining to channels connected to VADC via EMUX */
 589:N:/EECS 473/Myoelectric/myoelectric/Libraries/XMCLib/inc\xmc_vadc.h **** } XMC_VADC_GROUP_CONV_t;
 590:N:/EECS 473/Myoelectric/myoelectric/Libraries/XMCLib/inc\xmc_vadc.h **** 
 591:N:/EECS 473/Myoelectric/myoelectric/Libraries/XMCLib/inc\xmc_vadc.h **** /**
 592:N:/EECS 473/Myoelectric/myoelectric/Libraries/XMCLib/inc\xmc_vadc.h ****  *  Defines the request source arbiter behavior. Use @ref XMC_VADC_GROUP_ARBMODE_t for this enumera
 593:N:/EECS 473/Myoelectric/myoelectric/Libraries/XMCLib/inc\xmc_vadc.h ****  */
 594:N:/EECS 473/Myoelectric/myoelectric/Libraries/XMCLib/inc\xmc_vadc.h **** typedef enum XMC_VADC_GROUP_ARBMODE
 595:N:/EECS 473/Myoelectric/myoelectric/Libraries/XMCLib/inc\xmc_vadc.h **** {
 596:N:/EECS 473/Myoelectric/myoelectric/Libraries/XMCLib/inc\xmc_vadc.h ****   XMC_VADC_GROUP_ARBMODE_ALWAYS = 0, /**< Arbiter runs all the time */
 597:N:/EECS 473/Myoelectric/myoelectric/Libraries/XMCLib/inc\xmc_vadc.h ****   XMC_VADC_GROUP_ARBMODE_ONDEMAND    /**< Arbiter runs only if a conversion request is asserted by 
 598:N:/EECS 473/Myoelectric/myoelectric/Libraries/XMCLib/inc\xmc_vadc.h ****                                           request sources */
 599:N:/EECS 473/Myoelectric/myoelectric/Libraries/XMCLib/inc\xmc_vadc.h **** } XMC_VADC_GROUP_ARBMODE_t;
 600:N:/EECS 473/Myoelectric/myoelectric/Libraries/XMCLib/inc\xmc_vadc.h **** 
 601:N:/EECS 473/Myoelectric/myoelectric/Libraries/XMCLib/inc\xmc_vadc.h **** /**
 602:N:/EECS 473/Myoelectric/myoelectric/Libraries/XMCLib/inc\xmc_vadc.h ****  *  Defines the EMUX mode of operation. Use @ref XMC_VADC_GROUP_EMUXMODE_t for this enumeration.
 603:N:/EECS 473/Myoelectric/myoelectric/Libraries/XMCLib/inc\xmc_vadc.h ****  */
 604:N:/EECS 473/Myoelectric/myoelectric/Libraries/XMCLib/inc\xmc_vadc.h **** typedef enum XMC_VADC_GROUP_EMUXMODE
 605:N:/EECS 473/Myoelectric/myoelectric/Libraries/XMCLib/inc\xmc_vadc.h **** {
 606:N:/EECS 473/Myoelectric/myoelectric/Libraries/XMCLib/inc\xmc_vadc.h ****   XMC_VADC_GROUP_EMUXMODE_SWCTRL = 0,     /**< Perform EMUX in Software control mode*/
 607:N:/EECS 473/Myoelectric/myoelectric/Libraries/XMCLib/inc\xmc_vadc.h ****   XMC_VADC_GROUP_EMUXMODE_STEADYMODE,     /**< Perform EMUX in Steady mode (Use EMUX set value)*/
 608:N:/EECS 473/Myoelectric/myoelectric/Libraries/XMCLib/inc\xmc_vadc.h ****   XMC_VADC_GROUP_EMUXMODE_SINGLEMODE,     /**< Perform EMUX in Single step mode*/
 609:N:/EECS 473/Myoelectric/myoelectric/Libraries/XMCLib/inc\xmc_vadc.h ****   XMC_VADC_GROUP_EMUXMODE_SEQUENCEMODE,   /**< Perform EMUX in Sequence mode*/
 610:N:/EECS 473/Myoelectric/myoelectric/Libraries/XMCLib/inc\xmc_vadc.h **** } XMC_VADC_GROUP_EMUXMODE_t;
 611:N:/EECS 473/Myoelectric/myoelectric/Libraries/XMCLib/inc\xmc_vadc.h **** 
 612:N:/EECS 473/Myoelectric/myoelectric/Libraries/XMCLib/inc\xmc_vadc.h **** /**
 613:N:/EECS 473/Myoelectric/myoelectric/Libraries/XMCLib/inc\xmc_vadc.h ****  *  Defines the EMUX channel selection encoding scheme. Use @ref XMC_VADC_GROUP_EMUXCODE_t for this
 614:N:/EECS 473/Myoelectric/myoelectric/Libraries/XMCLib/inc\xmc_vadc.h ****  */
 615:N:/EECS 473/Myoelectric/myoelectric/Libraries/XMCLib/inc\xmc_vadc.h **** typedef enum XMC_VADC_GROUP_EMUXCODE
 616:N:/EECS 473/Myoelectric/myoelectric/Libraries/XMCLib/inc\xmc_vadc.h **** {
 617:N:/EECS 473/Myoelectric/myoelectric/Libraries/XMCLib/inc\xmc_vadc.h ****   XMC_VADC_GROUP_EMUXCODE_BINARY = 0, /**< A linearly incrementing code serves are MUX-SEL */
 618:N:/EECS 473/Myoelectric/myoelectric/Libraries/XMCLib/inc\xmc_vadc.h ****   XMC_VADC_GROUP_EMUXCODE_GRAY       /**< The MUX-SEL is gray encoded */
 619:N:/EECS 473/Myoelectric/myoelectric/Libraries/XMCLib/inc\xmc_vadc.h **** } XMC_VADC_GROUP_EMUXCODE_t;
 620:N:/EECS 473/Myoelectric/myoelectric/Libraries/XMCLib/inc\xmc_vadc.h **** 
 621:N:/EECS 473/Myoelectric/myoelectric/Libraries/XMCLib/inc\xmc_vadc.h **** /**
 622:N:/EECS 473/Myoelectric/myoelectric/Libraries/XMCLib/inc\xmc_vadc.h ****  *  Defines the service request set used. Use @ref XMC_VADC_GROUP_IRQ_t for this enumeration.
 623:N:/EECS 473/Myoelectric/myoelectric/Libraries/XMCLib/inc\xmc_vadc.h ****  */
 624:N:/EECS 473/Myoelectric/myoelectric/Libraries/XMCLib/inc\xmc_vadc.h **** typedef enum XMC_VADC_GROUP_IRQ
 625:N:/EECS 473/Myoelectric/myoelectric/Libraries/XMCLib/inc\xmc_vadc.h **** {
 626:N:/EECS 473/Myoelectric/myoelectric/Libraries/XMCLib/inc\xmc_vadc.h ****   XMC_VADC_GROUP_IRQ_KERNEL = 0, /**< Refers to Group specific service request */
 627:N:/EECS 473/Myoelectric/myoelectric/Libraries/XMCLib/inc\xmc_vadc.h ****   XMC_VADC_GROUP_IRQ_SHARED     /**< Refers to Module wide service request */
 628:N:/EECS 473/Myoelectric/myoelectric/Libraries/XMCLib/inc\xmc_vadc.h **** } XMC_VADC_GROUP_IRQ_t;
 629:N:/EECS 473/Myoelectric/myoelectric/Libraries/XMCLib/inc\xmc_vadc.h **** 
 630:N:/EECS 473/Myoelectric/myoelectric/Libraries/XMCLib/inc\xmc_vadc.h **** /**
 631:N:/EECS 473/Myoelectric/myoelectric/Libraries/XMCLib/inc\xmc_vadc.h ****  *  Defines the alignment of the converted result. Use @ref XMC_VADC_RESULT_ALIGN_t for this enumer
 632:N:/EECS 473/Myoelectric/myoelectric/Libraries/XMCLib/inc\xmc_vadc.h ****  */
 633:N:/EECS 473/Myoelectric/myoelectric/Libraries/XMCLib/inc\xmc_vadc.h **** typedef enum XMC_VADC_RESULT_ALIGN
 634:N:/EECS 473/Myoelectric/myoelectric/Libraries/XMCLib/inc\xmc_vadc.h **** {
 635:N:/EECS 473/Myoelectric/myoelectric/Libraries/XMCLib/inc\xmc_vadc.h ****   XMC_VADC_RESULT_ALIGN_LEFT = 0,  /**< Always align result to left */
 636:N:/EECS 473/Myoelectric/myoelectric/Libraries/XMCLib/inc\xmc_vadc.h ****   XMC_VADC_RESULT_ALIGN_RIGHT      /**< Always align result to right */
 637:N:/EECS 473/Myoelectric/myoelectric/Libraries/XMCLib/inc\xmc_vadc.h **** } XMC_VADC_RESULT_ALIGN_t;
 638:N:/EECS 473/Myoelectric/myoelectric/Libraries/XMCLib/inc\xmc_vadc.h **** 
 639:N:/EECS 473/Myoelectric/myoelectric/Libraries/XMCLib/inc\xmc_vadc.h **** typedef enum XMC_VADC_RESULT_SUBTRATION 
 640:N:/EECS 473/Myoelectric/myoelectric/Libraries/XMCLib/inc\xmc_vadc.h **** {
 641:N:/EECS 473/Myoelectric/myoelectric/Libraries/XMCLib/inc\xmc_vadc.h ****   XMC_VADC_RESULT_SUBTRATION_12BIT_LEFT_ALIGN  = 0U,  /**< Always align result to left */
 642:N:/EECS 473/Myoelectric/myoelectric/Libraries/XMCLib/inc\xmc_vadc.h ****   XMC_VADC_RESULT_SUBTRATION_12BIT_RIGHT_ALIGN = 0U,  /**< Always align result to right */
 643:N:/EECS 473/Myoelectric/myoelectric/Libraries/XMCLib/inc\xmc_vadc.h ****   XMC_VADC_RESULT_SUBTRATION_10BIT_LEFT_ALIGN  = 2U,  /**< Always align result to left */
 644:N:/EECS 473/Myoelectric/myoelectric/Libraries/XMCLib/inc\xmc_vadc.h ****   XMC_VADC_RESULT_SUBTRATION_10BIT_RIGHT_ALIGN = 0U,  /**< Always align result to right */
 645:N:/EECS 473/Myoelectric/myoelectric/Libraries/XMCLib/inc\xmc_vadc.h ****   XMC_VADC_RESULT_SUBTRATION_8BIT_LEFT_ALIGN   = 4U,  /**< Always align result to left */
 646:N:/EECS 473/Myoelectric/myoelectric/Libraries/XMCLib/inc\xmc_vadc.h ****   XMC_VADC_RESULT_SUBTRATION_8BIT_RIGHT_ALIGN  = 0U,  /**< Always align result to right */
 647:N:/EECS 473/Myoelectric/myoelectric/Libraries/XMCLib/inc\xmc_vadc.h **** } XMC_VADC_RESULT_SUBTRATION_t;
 648:N:/EECS 473/Myoelectric/myoelectric/Libraries/XMCLib/inc\xmc_vadc.h **** 
 649:N:/EECS 473/Myoelectric/myoelectric/Libraries/XMCLib/inc\xmc_vadc.h **** /**
 650:N:/EECS 473/Myoelectric/myoelectric/Libraries/XMCLib/inc\xmc_vadc.h ****  *  Defines the request source arbitration priority. Use @ref XMC_VADC_GROUP_RS_PRIORITY_t for this
 651:N:/EECS 473/Myoelectric/myoelectric/Libraries/XMCLib/inc\xmc_vadc.h ****  */
 652:N:/EECS 473/Myoelectric/myoelectric/Libraries/XMCLib/inc\xmc_vadc.h **** typedef enum XMC_VADC_GROUP_RS_PRIORITY
 653:N:/EECS 473/Myoelectric/myoelectric/Libraries/XMCLib/inc\xmc_vadc.h **** {
 654:N:/EECS 473/Myoelectric/myoelectric/Libraries/XMCLib/inc\xmc_vadc.h ****     XMC_VADC_GROUP_RS_PRIORITY_0 = 0, /**< Lowest priority for the request source*/
 655:N:/EECS 473/Myoelectric/myoelectric/Libraries/XMCLib/inc\xmc_vadc.h ****     XMC_VADC_GROUP_RS_PRIORITY_1,     /**< Second lowest priority for the request source*/
 656:N:/EECS 473/Myoelectric/myoelectric/Libraries/XMCLib/inc\xmc_vadc.h ****     XMC_VADC_GROUP_RS_PRIORITY_2,     /**< Second highest priority for the request source*/
 657:N:/EECS 473/Myoelectric/myoelectric/Libraries/XMCLib/inc\xmc_vadc.h ****     XMC_VADC_GROUP_RS_PRIORITY_3,     /**< Highest priority for the request source*/
 658:N:/EECS 473/Myoelectric/myoelectric/Libraries/XMCLib/inc\xmc_vadc.h **** }XMC_VADC_GROUP_RS_PRIORITY_t;
 659:N:/EECS 473/Myoelectric/myoelectric/Libraries/XMCLib/inc\xmc_vadc.h **** 
 660:N:/EECS 473/Myoelectric/myoelectric/Libraries/XMCLib/inc\xmc_vadc.h **** /**
 661:N:/EECS 473/Myoelectric/myoelectric/Libraries/XMCLib/inc\xmc_vadc.h ****  *  Defines the various modes for the boundary flag. Use @ref XMC_VADC_GROUP_BOUNDARY_FLAG_MODE_t f
 662:N:/EECS 473/Myoelectric/myoelectric/Libraries/XMCLib/inc\xmc_vadc.h ****  */
 663:N:/EECS 473/Myoelectric/myoelectric/Libraries/XMCLib/inc\xmc_vadc.h **** typedef enum XMC_VADC_GROUP_BOUNDARY_FLAG_MODE
 664:N:/EECS 473/Myoelectric/myoelectric/Libraries/XMCLib/inc\xmc_vadc.h **** {
 665:N:/EECS 473/Myoelectric/myoelectric/Libraries/XMCLib/inc\xmc_vadc.h ****     XMC_VADC_GROUP_BOUNDARY_FLAG_MODE_DISABLED = 0,       /**< Disable boundary flag*/
 666:N:/EECS 473/Myoelectric/myoelectric/Libraries/XMCLib/inc\xmc_vadc.h ****     XMC_VADC_GROUP_BOUNDARY_FLAG_MODE_ENABLED,            /**< Always enable boundary*/
 667:N:/EECS 473/Myoelectric/myoelectric/Libraries/XMCLib/inc\xmc_vadc.h ****     XMC_VADC_GROUP_BOUNDARY_FLAG_MODE_ENABLED_ACTIVE_LOW, /**< Enable boundary flag when gate level
 668:N:/EECS 473/Myoelectric/myoelectric/Libraries/XMCLib/inc\xmc_vadc.h ****     XMC_VADC_GROUP_BOUNDARY_FLAG_MODE_ENABLED_ACTIVE_HIGH /**< Enable boundary flag when gate level
 669:N:/EECS 473/Myoelectric/myoelectric/Libraries/XMCLib/inc\xmc_vadc.h **** }XMC_VADC_GROUP_BOUNDARY_FLAG_MODE_t;
 670:N:/EECS 473/Myoelectric/myoelectric/Libraries/XMCLib/inc\xmc_vadc.h **** 
 671:N:/EECS 473/Myoelectric/myoelectric/Libraries/XMCLib/inc\xmc_vadc.h **** 
 672:N:/EECS 473/Myoelectric/myoelectric/Libraries/XMCLib/inc\xmc_vadc.h **** /**
 673:N:/EECS 473/Myoelectric/myoelectric/Libraries/XMCLib/inc\xmc_vadc.h ****  *  Defines the boundary select for Channel. Use @ref XMC_VADC_GROUP_BOUNDARY_FLAG_MODE_t for this 
 674:N:/EECS 473/Myoelectric/myoelectric/Libraries/XMCLib/inc\xmc_vadc.h ****  */
 675:N:/EECS 473/Myoelectric/myoelectric/Libraries/XMCLib/inc\xmc_vadc.h **** typedef enum XMC_VADC_BOUNDARY_SELECT
 676:N:/EECS 473/Myoelectric/myoelectric/Libraries/XMCLib/inc\xmc_vadc.h **** {
 677:N:/EECS 473/Myoelectric/myoelectric/Libraries/XMCLib/inc\xmc_vadc.h ****   XMC_VADC_BOUNDARY_SELECT_LOWER_BOUND = 0U,       /**< Select the lower boundary*/
 678:N:/EECS 473/Myoelectric/myoelectric/Libraries/XMCLib/inc\xmc_vadc.h ****   XMC_VADC_BOUNDARY_SELECT_UPPER_BOUND = 2U        /**< Selects the upper boundary*/
 679:N:/EECS 473/Myoelectric/myoelectric/Libraries/XMCLib/inc\xmc_vadc.h **** }XMC_VADC_BOUNDARY_SELECT_t;
 680:N:/EECS 473/Myoelectric/myoelectric/Libraries/XMCLib/inc\xmc_vadc.h **** 
 681:N:/EECS 473/Myoelectric/myoelectric/Libraries/XMCLib/inc\xmc_vadc.h **** 
 682:N:/EECS 473/Myoelectric/myoelectric/Libraries/XMCLib/inc\xmc_vadc.h **** /**
 683:N:/EECS 473/Myoelectric/myoelectric/Libraries/XMCLib/inc\xmc_vadc.h ****  * Defines the group indices. Use @ref XMC_VADC_GROUP_INDEX_t for this enumeration.
 684:N:/EECS 473/Myoelectric/myoelectric/Libraries/XMCLib/inc\xmc_vadc.h ****  */
 685:N:/EECS 473/Myoelectric/myoelectric/Libraries/XMCLib/inc\xmc_vadc.h **** typedef enum XMC_VADC_GROUP_INDEX
 686:N:/EECS 473/Myoelectric/myoelectric/Libraries/XMCLib/inc\xmc_vadc.h **** {
 687:N:/EECS 473/Myoelectric/myoelectric/Libraries/XMCLib/inc\xmc_vadc.h ****     XMC_VADC_GROUP_INDEX_0   = 0,
 688:N:/EECS 473/Myoelectric/myoelectric/Libraries/XMCLib/inc\xmc_vadc.h ****     XMC_VADC_GROUP_INDEX_1,
 689:N:/EECS 473/Myoelectric/myoelectric/Libraries/XMCLib/inc\xmc_vadc.h **** #if (XMC_VADC_MAXIMUM_NUM_GROUPS > 2U)
 690:N:/EECS 473/Myoelectric/myoelectric/Libraries/XMCLib/inc\xmc_vadc.h ****     XMC_VADC_GROUP_INDEX_2,
 691:N:/EECS 473/Myoelectric/myoelectric/Libraries/XMCLib/inc\xmc_vadc.h ****     XMC_VADC_GROUP_INDEX_3
 692:N:/EECS 473/Myoelectric/myoelectric/Libraries/XMCLib/inc\xmc_vadc.h **** #endif
 693:N:/EECS 473/Myoelectric/myoelectric/Libraries/XMCLib/inc\xmc_vadc.h **** }XMC_VADC_GROUP_INDEX_t;
 694:N:/EECS 473/Myoelectric/myoelectric/Libraries/XMCLib/inc\xmc_vadc.h **** 
 695:N:/EECS 473/Myoelectric/myoelectric/Libraries/XMCLib/inc\xmc_vadc.h **** /**
 696:N:/EECS 473/Myoelectric/myoelectric/Libraries/XMCLib/inc\xmc_vadc.h **** * Defines channel alias.
 697:N:/EECS 473/Myoelectric/myoelectric/Libraries/XMCLib/inc\xmc_vadc.h **** * All enum items are available for channels 0 and 1. Other Channels can accept only XMC_VADC_CHANNE
 698:N:/EECS 473/Myoelectric/myoelectric/Libraries/XMCLib/inc\xmc_vadc.h **** */
 699:N:/EECS 473/Myoelectric/myoelectric/Libraries/XMCLib/inc\xmc_vadc.h **** typedef enum XMC_VADC_CHANNEL_ALIAS
 700:N:/EECS 473/Myoelectric/myoelectric/Libraries/XMCLib/inc\xmc_vadc.h **** {
 701:N:/EECS 473/Myoelectric/myoelectric/Libraries/XMCLib/inc\xmc_vadc.h ****   XMC_VADC_CHANNEL_ALIAS_DISABLED = -1,
 702:N:/EECS 473/Myoelectric/myoelectric/Libraries/XMCLib/inc\xmc_vadc.h ****   XMC_VADC_CHANNEL_ALIAS_CH0 = 0,
 703:N:/EECS 473/Myoelectric/myoelectric/Libraries/XMCLib/inc\xmc_vadc.h ****   XMC_VADC_CHANNEL_ALIAS_CH1 = 1,
 704:N:/EECS 473/Myoelectric/myoelectric/Libraries/XMCLib/inc\xmc_vadc.h ****   XMC_VADC_CHANNEL_ALIAS_CH2 = 2,
 705:N:/EECS 473/Myoelectric/myoelectric/Libraries/XMCLib/inc\xmc_vadc.h ****   XMC_VADC_CHANNEL_ALIAS_CH3 = 3,
 706:N:/EECS 473/Myoelectric/myoelectric/Libraries/XMCLib/inc\xmc_vadc.h ****   XMC_VADC_CHANNEL_ALIAS_CH4 = 4,
 707:N:/EECS 473/Myoelectric/myoelectric/Libraries/XMCLib/inc\xmc_vadc.h ****   XMC_VADC_CHANNEL_ALIAS_CH5 = 5,
 708:N:/EECS 473/Myoelectric/myoelectric/Libraries/XMCLib/inc\xmc_vadc.h ****   XMC_VADC_CHANNEL_ALIAS_CH6 = 6,
 709:N:/EECS 473/Myoelectric/myoelectric/Libraries/XMCLib/inc\xmc_vadc.h ****   XMC_VADC_CHANNEL_ALIAS_CH7 = 7
 710:N:/EECS 473/Myoelectric/myoelectric/Libraries/XMCLib/inc\xmc_vadc.h **** } XMC_VADC_CHANNEL_ALIAS_t;
 711:N:/EECS 473/Myoelectric/myoelectric/Libraries/XMCLib/inc\xmc_vadc.h **** 
 712:N:/EECS 473/Myoelectric/myoelectric/Libraries/XMCLib/inc\xmc_vadc.h **** #if(XMC_VADC_SHS_AVAILABLE == 1U)
 713:N:/EECS 473/Myoelectric/myoelectric/Libraries/XMCLib/inc\xmc_vadc.h **** 
 714:N:/EECS 473/Myoelectric/myoelectric/Libraries/XMCLib/inc\xmc_vadc.h **** /**
 715:N:/EECS 473/Myoelectric/myoelectric/Libraries/XMCLib/inc\xmc_vadc.h ****  * Selection of the reference voltage that is required for conversions (VREF).
 716:N:/EECS 473/Myoelectric/myoelectric/Libraries/XMCLib/inc\xmc_vadc.h ****  */
 717:N:/EECS 473/Myoelectric/myoelectric/Libraries/XMCLib/inc\xmc_vadc.h **** typedef enum XMC_VADC_GLOBAL_SHS_AREF
 718:N:/EECS 473/Myoelectric/myoelectric/Libraries/XMCLib/inc\xmc_vadc.h **** {
 719:N:/EECS 473/Myoelectric/myoelectric/Libraries/XMCLib/inc\xmc_vadc.h ****   XMC_VADC_GLOBAL_SHS_AREF_EXTERNAL_VDD_UPPER_RANGE = 0 << SHS_SHSCFG_AREF_Pos, /**< External refer
 720:N:/EECS 473/Myoelectric/myoelectric/Libraries/XMCLib/inc\xmc_vadc.h ****   XMC_VADC_GLOBAL_SHS_AREF_INTERNAL_VDD_UPPER_RANGE = 2 << SHS_SHSCFG_AREF_Pos, /**< Internal refer
 721:N:/EECS 473/Myoelectric/myoelectric/Libraries/XMCLib/inc\xmc_vadc.h ****   XMC_VADC_GLOBAL_SHS_AREF_INTERNAL_VDD_LOWER_RANGE = 3 << SHS_SHSCFG_AREF_Pos, /**< Internal refer
 722:N:/EECS 473/Myoelectric/myoelectric/Libraries/XMCLib/inc\xmc_vadc.h **** } XMC_VADC_GLOBAL_SHS_AREF_t;
 723:N:/EECS 473/Myoelectric/myoelectric/Libraries/XMCLib/inc\xmc_vadc.h **** 
 724:N:/EECS 473/Myoelectric/myoelectric/Libraries/XMCLib/inc\xmc_vadc.h **** #if(XMC_VADC_SHS_FULL_SET_REG == 1U)
 725:N:/EECS 473/Myoelectric/myoelectric/Libraries/XMCLib/inc\xmc_vadc.h **** /**
 726:N:/EECS 473/Myoelectric/myoelectric/Libraries/XMCLib/inc\xmc_vadc.h ****  * Defines the gain calibration selection.
 727:N:/EECS 473/Myoelectric/myoelectric/Libraries/XMCLib/inc\xmc_vadc.h ****  */
 728:N:/EECS 473/Myoelectric/myoelectric/Libraries/XMCLib/inc\xmc_vadc.h **** typedef enum XMC_VADC_SHS_GAIN_LEVEL
 729:N:/EECS 473/Myoelectric/myoelectric/Libraries/XMCLib/inc\xmc_vadc.h **** {
 730:N:/EECS 473/Myoelectric/myoelectric/Libraries/XMCLib/inc\xmc_vadc.h ****   XMC_VADC_SHS_GAIN_LEVEL_0 = SHS_CALOC0_CALOFFVAL0_Pos, /**< Select the calibration value for gain
 731:N:/EECS 473/Myoelectric/myoelectric/Libraries/XMCLib/inc\xmc_vadc.h ****   XMC_VADC_SHS_GAIN_LEVEL_1 = SHS_CALOC0_CALOFFVAL1_Pos, /**< Select the calibration value for gain
 732:N:/EECS 473/Myoelectric/myoelectric/Libraries/XMCLib/inc\xmc_vadc.h ****   XMC_VADC_SHS_GAIN_LEVEL_2 = SHS_CALOC0_CALOFFVAL2_Pos, /**< Select the calibration value for gain
 733:N:/EECS 473/Myoelectric/myoelectric/Libraries/XMCLib/inc\xmc_vadc.h ****   XMC_VADC_SHS_GAIN_LEVEL_3 = SHS_CALOC0_CALOFFVAL3_Pos  /**< Select the calibration value for gain
 734:N:/EECS 473/Myoelectric/myoelectric/Libraries/XMCLib/inc\xmc_vadc.h **** }XMC_VADC_SHS_GAIN_LEVEL_t;
 735:N:/EECS 473/Myoelectric/myoelectric/Libraries/XMCLib/inc\xmc_vadc.h **** #endif
 736:N:/EECS 473/Myoelectric/myoelectric/Libraries/XMCLib/inc\xmc_vadc.h **** 
 737:N:/EECS 473/Myoelectric/myoelectric/Libraries/XMCLib/inc\xmc_vadc.h **** /**
 738:N:/EECS 473/Myoelectric/myoelectric/Libraries/XMCLib/inc\xmc_vadc.h ****  * Defines the Delta sigma loop.
 739:N:/EECS 473/Myoelectric/myoelectric/Libraries/XMCLib/inc\xmc_vadc.h ****  */
 740:N:/EECS 473/Myoelectric/myoelectric/Libraries/XMCLib/inc\xmc_vadc.h **** typedef enum XMC_VADC_SHS_LOOP_CH
 741:N:/EECS 473/Myoelectric/myoelectric/Libraries/XMCLib/inc\xmc_vadc.h **** {
 742:N:/EECS 473/Myoelectric/myoelectric/Libraries/XMCLib/inc\xmc_vadc.h ****   XMC_VADC_SHS_LOOP_CH_0 = SHS_LOOP_LPCH0_Pos, /**< Select Delta-sigma loop 0*/
 743:N:/EECS 473/Myoelectric/myoelectric/Libraries/XMCLib/inc\xmc_vadc.h ****   XMC_VADC_SHS_LOOP_CH_1 = SHS_LOOP_LPCH1_Pos /**< Select Delta-sigma loop 1*/
 744:N:/EECS 473/Myoelectric/myoelectric/Libraries/XMCLib/inc\xmc_vadc.h **** }XMC_VADC_SHS_LOOP_CH_t;
 745:N:/EECS 473/Myoelectric/myoelectric/Libraries/XMCLib/inc\xmc_vadc.h **** 
 746:N:/EECS 473/Myoelectric/myoelectric/Libraries/XMCLib/inc\xmc_vadc.h **** /**
 747:N:/EECS 473/Myoelectric/myoelectric/Libraries/XMCLib/inc\xmc_vadc.h ****  * Provides the order in which the SHS should do the calibration
 748:N:/EECS 473/Myoelectric/myoelectric/Libraries/XMCLib/inc\xmc_vadc.h ****  */
 749:N:/EECS 473/Myoelectric/myoelectric/Libraries/XMCLib/inc\xmc_vadc.h **** typedef enum XMC_VADC_GLOBAL_SHS_CALIBRATION_ORDER
 750:N:/EECS 473/Myoelectric/myoelectric/Libraries/XMCLib/inc\xmc_vadc.h **** {
 751:N:/EECS 473/Myoelectric/myoelectric/Libraries/XMCLib/inc\xmc_vadc.h ****   XMC_VADC_GLOBAL_SHS_CALIBRATION_ORDER_POST_CONV = 0, /**< Calibration occur after conversion take
 752:N:/EECS 473/Myoelectric/myoelectric/Libraries/XMCLib/inc\xmc_vadc.h ****   XMC_VADC_GLOBAL_SHS_CALIBRATION_ORDER_PRE_CONV   /**< Calibration occur before conversion takes p
 753:N:/EECS 473/Myoelectric/myoelectric/Libraries/XMCLib/inc\xmc_vadc.h **** }XMC_VADC_GLOBAL_SHS_CALIBRATION_ORDER_t;
 754:N:/EECS 473/Myoelectric/myoelectric/Libraries/XMCLib/inc\xmc_vadc.h **** #endif
 755:N:/EECS 473/Myoelectric/myoelectric/Libraries/XMCLib/inc\xmc_vadc.h **** 
 756:N:/EECS 473/Myoelectric/myoelectric/Libraries/XMCLib/inc\xmc_vadc.h **** #if (XMC_VADC_BOUNDARY_FLAG_SELECT == 1U)
 757:N:/EECS 473/Myoelectric/myoelectric/Libraries/XMCLib/inc\xmc_vadc.h **** /**
 758:N:/EECS 473/Myoelectric/myoelectric/Libraries/XMCLib/inc\xmc_vadc.h ****  * Provides possible routing values for the boundary flag.
 759:N:/EECS 473/Myoelectric/myoelectric/Libraries/XMCLib/inc\xmc_vadc.h ****  */
 760:N:/EECS 473/Myoelectric/myoelectric/Libraries/XMCLib/inc\xmc_vadc.h **** typedef enum XMC_VADC_BOUNDARY_NODE
 761:N:/EECS 473/Myoelectric/myoelectric/Libraries/XMCLib/inc\xmc_vadc.h **** {
 762:N:/EECS 473/Myoelectric/myoelectric/Libraries/XMCLib/inc\xmc_vadc.h ****   XMC_VADC_BOUNDARY_NODE_COMMON_BOUNDARY_FLAG_0 = 0U, /**<Route the Group boundary flag to Common b
 763:N:/EECS 473/Myoelectric/myoelectric/Libraries/XMCLib/inc\xmc_vadc.h ****   XMC_VADC_BOUNDARY_NODE_COMMON_BOUNDARY_FLAG_1,      /**<Route the Group boundary flag to Common b
 764:N:/EECS 473/Myoelectric/myoelectric/Libraries/XMCLib/inc\xmc_vadc.h ****   XMC_VADC_BOUNDARY_NODE_COMMON_BOUNDARY_FLAG_2,      /**<Route the Group boundary flag to Common b
 765:N:/EECS 473/Myoelectric/myoelectric/Libraries/XMCLib/inc\xmc_vadc.h ****   XMC_VADC_BOUNDARY_NODE_COMMON_BOUNDARY_FLAG_3,      /**<Route the Group boundary flag to Common b
 766:N:/EECS 473/Myoelectric/myoelectric/Libraries/XMCLib/inc\xmc_vadc.h ****   XMC_VADC_BOUNDARY_NODE_COMMON_SR_LINE_0,  /**<Route the Group boundary flag to Common Service Req
 767:N:/EECS 473/Myoelectric/myoelectric/Libraries/XMCLib/inc\xmc_vadc.h ****   XMC_VADC_BOUNDARY_NODE_COMMON_SR_LINE_1,  /**<Route the Group boundary flag to Common Service Req
 768:N:/EECS 473/Myoelectric/myoelectric/Libraries/XMCLib/inc\xmc_vadc.h ****   XMC_VADC_BOUNDARY_NODE_COMMON_SR_LINE_2,  /**<Route the Group boundary flag to Common Service Req
 769:N:/EECS 473/Myoelectric/myoelectric/Libraries/XMCLib/inc\xmc_vadc.h ****   XMC_VADC_BOUNDARY_NODE_COMMON_SR_LINE_3   /**<Route the Group boundary flag to Common Service Req
 770:N:/EECS 473/Myoelectric/myoelectric/Libraries/XMCLib/inc\xmc_vadc.h **** }XMC_VADC_BOUNDARY_NODE_t;
 771:N:/EECS 473/Myoelectric/myoelectric/Libraries/XMCLib/inc\xmc_vadc.h **** #endif
 772:N:/EECS 473/Myoelectric/myoelectric/Libraries/XMCLib/inc\xmc_vadc.h **** 
 773:N:/EECS 473/Myoelectric/myoelectric/Libraries/XMCLib/inc\xmc_vadc.h **** #if (XMC_VADC_GROUP_AVAILABLE == 1U)
 774:N:/EECS 473/Myoelectric/myoelectric/Libraries/XMCLib/inc\xmc_vadc.h **** /**
 775:N:/EECS 473/Myoelectric/myoelectric/Libraries/XMCLib/inc\xmc_vadc.h ****  * Defines the ready signal selection
 776:N:/EECS 473/Myoelectric/myoelectric/Libraries/XMCLib/inc\xmc_vadc.h ****  */
 777:N:/EECS 473/Myoelectric/myoelectric/Libraries/XMCLib/inc\xmc_vadc.h **** typedef enum XMC_VADC_SYNCTR_EVAL
 778:N:/EECS 473/Myoelectric/myoelectric/Libraries/XMCLib/inc\xmc_vadc.h **** {
 779:N:/EECS 473/Myoelectric/myoelectric/Libraries/XMCLib/inc\xmc_vadc.h ****   XMC_VADC_SYNCTR_EVAL_1 = VADC_G_SYNCTR_EVALR1_Msk, /**<Mask to set the EVAL1 bits of SYNCTR */
 780:N:/EECS 473/Myoelectric/myoelectric/Libraries/XMCLib/inc\xmc_vadc.h **** #if (XMC_VADC_MAXIMUM_NUM_GROUPS > 2U)
 781:N:/EECS 473/Myoelectric/myoelectric/Libraries/XMCLib/inc\xmc_vadc.h ****   XMC_VADC_SYNCTR_EVAL_2 = VADC_G_SYNCTR_EVALR2_Msk, /**<Mask to set the EVAL2 bits of SYNCTR */
 782:N:/EECS 473/Myoelectric/myoelectric/Libraries/XMCLib/inc\xmc_vadc.h ****   XMC_VADC_SYNCTR_EVAL_3 = VADC_G_SYNCTR_EVALR3_Msk  /**<Mask to set the EVAL3 bits of SYNCTR */
 783:N:/EECS 473/Myoelectric/myoelectric/Libraries/XMCLib/inc\xmc_vadc.h **** #endif
 784:N:/EECS 473/Myoelectric/myoelectric/Libraries/XMCLib/inc\xmc_vadc.h **** }XMC_VADC_SYNCTR_EVAL_t;
 785:N:/EECS 473/Myoelectric/myoelectric/Libraries/XMCLib/inc\xmc_vadc.h **** #endif
 786:N:/EECS 473/Myoelectric/myoelectric/Libraries/XMCLib/inc\xmc_vadc.h **** /**************************************************************************************************
 787:N:/EECS 473/Myoelectric/myoelectric/Libraries/XMCLib/inc\xmc_vadc.h ****  * DATA STRUCTURES
 788:N:/EECS 473/Myoelectric/myoelectric/Libraries/XMCLib/inc\xmc_vadc.h ****  **************************************************************************************************
 789:N:/EECS 473/Myoelectric/myoelectric/Libraries/XMCLib/inc\xmc_vadc.h **** /*Anonymous structure/union guard start*/
 790:N:/EECS 473/Myoelectric/myoelectric/Libraries/XMCLib/inc\xmc_vadc.h **** #if defined(__CC_ARM)
 791:N:/EECS 473/Myoelectric/myoelectric/Libraries/XMCLib/inc\xmc_vadc.h ****   #pragma push
 792:N:/EECS 473/Myoelectric/myoelectric/Libraries/XMCLib/inc\xmc_vadc.h ****   #pragma anon_unions
 793:N:/EECS 473/Myoelectric/myoelectric/Libraries/XMCLib/inc\xmc_vadc.h **** #elif defined(__TASKING__)
 794:N:/EECS 473/Myoelectric/myoelectric/Libraries/XMCLib/inc\xmc_vadc.h ****   #pragma warning 586
 795:N:/EECS 473/Myoelectric/myoelectric/Libraries/XMCLib/inc\xmc_vadc.h **** #endif
 796:N:/EECS 473/Myoelectric/myoelectric/Libraries/XMCLib/inc\xmc_vadc.h **** 
 797:N:/EECS 473/Myoelectric/myoelectric/Libraries/XMCLib/inc\xmc_vadc.h **** /**
 798:N:/EECS 473/Myoelectric/myoelectric/Libraries/XMCLib/inc\xmc_vadc.h ****  *  Structure initializing the VADC scan request source. Use type @ref XMC_VADC_SCAN_CONFIG_t for t
 799:N:/EECS 473/Myoelectric/myoelectric/Libraries/XMCLib/inc\xmc_vadc.h ****  */
 800:N:/EECS 473/Myoelectric/myoelectric/Libraries/XMCLib/inc\xmc_vadc.h **** typedef struct XMC_VADC_SCAN_CONFIG
 801:N:/EECS 473/Myoelectric/myoelectric/Libraries/XMCLib/inc\xmc_vadc.h **** {
 802:N:/EECS 473/Myoelectric/myoelectric/Libraries/XMCLib/inc\xmc_vadc.h ****     uint32_t conv_start_mode  : 2;  /**< One converter is shared between the queue and scan request
 803:N:/EECS 473/Myoelectric/myoelectric/Libraries/XMCLib/inc\xmc_vadc.h ****                                          group. This field determines how scan request source would
 804:N:/EECS 473/Myoelectric/myoelectric/Libraries/XMCLib/inc\xmc_vadc.h ****                                          conversion. Uses @ref XMC_VADC_STARTMODE_t */
 805:N:/EECS 473/Myoelectric/myoelectric/Libraries/XMCLib/inc\xmc_vadc.h ****     uint32_t req_src_priority : 2;  /**< Request source priority for the arbiter. If the Conversion
 806:N:/EECS 473/Myoelectric/myoelectric/Libraries/XMCLib/inc\xmc_vadc.h ****                                          selected as Cancel inject repeat/Never mode then this fiel
 807:N:/EECS 473/Myoelectric/myoelectric/Libraries/XMCLib/inc\xmc_vadc.h ****                                          priority of scan request source. Uses @ref XMC_VADC_GROUP_
 808:N:/EECS 473/Myoelectric/myoelectric/Libraries/XMCLib/inc\xmc_vadc.h ****     union
 809:N:/EECS 473/Myoelectric/myoelectric/Libraries/XMCLib/inc\xmc_vadc.h ****     {
 810:N:/EECS 473/Myoelectric/myoelectric/Libraries/XMCLib/inc\xmc_vadc.h ****        struct
 811:N:/EECS 473/Myoelectric/myoelectric/Libraries/XMCLib/inc\xmc_vadc.h ****        {
 812:N:/EECS 473/Myoelectric/myoelectric/Libraries/XMCLib/inc\xmc_vadc.h **** #if(XMC_VADC_GROUP_SRCREG_AVAILABLE == (1U))
 813:N:/EECS 473/Myoelectric/myoelectric/Libraries/XMCLib/inc\xmc_vadc.h ****           uint32_t src_specific_result_reg : 4;  /**< Use any one Group related result register as 
 814:N:/EECS 473/Myoelectric/myoelectric/Libraries/XMCLib/inc\xmc_vadc.h ****                                                     for all conversions results. To use the  indivi
 815:N:/EECS 473/Myoelectric/myoelectric/Libraries/XMCLib/inc\xmc_vadc.h ****                                                     from each channel configuration, configure this
 816:N:/EECS 473/Myoelectric/myoelectric/Libraries/XMCLib/inc\xmc_vadc.h **** #else
 817:N:/EECS 473/Myoelectric/myoelectric/Libraries/XMCLib/inc\xmc_vadc.h ****           uint32_t                         : 4;
 818:N:/EECS 473/Myoelectric/myoelectric/Libraries/XMCLib/inc\xmc_vadc.h **** #endif
 819:N:/EECS 473/Myoelectric/myoelectric/Libraries/XMCLib/inc\xmc_vadc.h ****           uint32_t                         : 4;
 820:N:/EECS 473/Myoelectric/myoelectric/Libraries/XMCLib/inc\xmc_vadc.h ****           uint32_t trigger_signal          : 4;  /**< Select one of the 16 possibilities for trigge
 821:N:/EECS 473/Myoelectric/myoelectric/Libraries/XMCLib/inc\xmc_vadc.h ****                                                       XMC_VADC_TRIGGER_INPUT_SELECT_t enumeration*/
 822:N:/EECS 473/Myoelectric/myoelectric/Libraries/XMCLib/inc\xmc_vadc.h ****           uint32_t                         : 1;
 823:N:/EECS 473/Myoelectric/myoelectric/Libraries/XMCLib/inc\xmc_vadc.h ****           uint32_t trigger_edge            : 2;  /**< Edge selection for trigger signal. Uses @ref
 824:N:/EECS 473/Myoelectric/myoelectric/Libraries/XMCLib/inc\xmc_vadc.h ****                                                       XMC_VADC_TRIGGER_EDGE_t */
 825:N:/EECS 473/Myoelectric/myoelectric/Libraries/XMCLib/inc\xmc_vadc.h ****           uint32_t                         : 1;
 826:N:/EECS 473/Myoelectric/myoelectric/Libraries/XMCLib/inc\xmc_vadc.h ****           uint32_t gate_signal             : 4;  /**< Select one of the 16 possibilities for gating
 827:N:/EECS 473/Myoelectric/myoelectric/Libraries/XMCLib/inc\xmc_vadc.h ****                                                       XMC_VADC_GATE_INPUT_SELECT_t */
 828:N:/EECS 473/Myoelectric/myoelectric/Libraries/XMCLib/inc\xmc_vadc.h ****           uint32_t                         : 8;
 829:N:/EECS 473/Myoelectric/myoelectric/Libraries/XMCLib/inc\xmc_vadc.h ****           uint32_t timer_mode              : 1;  /**< Decides whether timer mode for equi-distant s
 830:N:/EECS 473/Myoelectric/myoelectric/Libraries/XMCLib/inc\xmc_vadc.h ****                                                       activated or not.*/
 831:N:/EECS 473/Myoelectric/myoelectric/Libraries/XMCLib/inc\xmc_vadc.h ****           uint32_t                         : 3;
 832:N:/EECS 473/Myoelectric/myoelectric/Libraries/XMCLib/inc\xmc_vadc.h ****        };
 833:N:/EECS 473/Myoelectric/myoelectric/Libraries/XMCLib/inc\xmc_vadc.h ****        uint32_t asctrl;
 834:N:/EECS 473/Myoelectric/myoelectric/Libraries/XMCLib/inc\xmc_vadc.h ****     };
 835:N:/EECS 473/Myoelectric/myoelectric/Libraries/XMCLib/inc\xmc_vadc.h ****     union
 836:N:/EECS 473/Myoelectric/myoelectric/Libraries/XMCLib/inc\xmc_vadc.h ****     {
 837:N:/EECS 473/Myoelectric/myoelectric/Libraries/XMCLib/inc\xmc_vadc.h ****        struct
 838:N:/EECS 473/Myoelectric/myoelectric/Libraries/XMCLib/inc\xmc_vadc.h ****        {
 839:N:/EECS 473/Myoelectric/myoelectric/Libraries/XMCLib/inc\xmc_vadc.h ****           uint32_t                    : 2;
 840:N:/EECS 473/Myoelectric/myoelectric/Libraries/XMCLib/inc\xmc_vadc.h ****           uint32_t external_trigger   : 1;  /**< Conversions be initiated by external hardware trig
 841:N:/EECS 473/Myoelectric/myoelectric/Libraries/XMCLib/inc\xmc_vadc.h ****           uint32_t req_src_interrupt  : 1;  /**< Request source event can be generated after a conv
 842:N:/EECS 473/Myoelectric/myoelectric/Libraries/XMCLib/inc\xmc_vadc.h ****           uint32_t enable_auto_scan   : 1;  /**< Enables the continuous conversion mode. Conversion
 843:N:/EECS 473/Myoelectric/myoelectric/Libraries/XMCLib/inc\xmc_vadc.h ****                                                  of the last channel in a scan sequence will cause 
 844:N:/EECS 473/Myoelectric/myoelectric/Libraries/XMCLib/inc\xmc_vadc.h ****           uint32_t load_mode          : 1;  /**< Selects load event mode. Uses @ref XMC_VADC_SCAN_L
 845:N:/EECS 473/Myoelectric/myoelectric/Libraries/XMCLib/inc\xmc_vadc.h ****           uint32_t                    : 26;
 846:N:/EECS 473/Myoelectric/myoelectric/Libraries/XMCLib/inc\xmc_vadc.h ****        };
 847:N:/EECS 473/Myoelectric/myoelectric/Libraries/XMCLib/inc\xmc_vadc.h ****        uint32_t asmr;
 848:N:/EECS 473/Myoelectric/myoelectric/Libraries/XMCLib/inc\xmc_vadc.h ****     };
 849:N:/EECS 473/Myoelectric/myoelectric/Libraries/XMCLib/inc\xmc_vadc.h **** } XMC_VADC_SCAN_CONFIG_t;
 850:N:/EECS 473/Myoelectric/myoelectric/Libraries/XMCLib/inc\xmc_vadc.h **** 
 851:N:/EECS 473/Myoelectric/myoelectric/Libraries/XMCLib/inc\xmc_vadc.h **** 
 852:N:/EECS 473/Myoelectric/myoelectric/Libraries/XMCLib/inc\xmc_vadc.h **** typedef XMC_VADC_SCAN_CONFIG_t XMC_VADC_BACKGROUND_CONFIG_t; /**< Type defined the scan configurati
 853:N:/EECS 473/Myoelectric/myoelectric/Libraries/XMCLib/inc\xmc_vadc.h ****                                                                  structure for background Request S
 854:N:/EECS 473/Myoelectric/myoelectric/Libraries/XMCLib/inc\xmc_vadc.h **** 
 855:N:/EECS 473/Myoelectric/myoelectric/Libraries/XMCLib/inc\xmc_vadc.h **** /**
 856:N:/EECS 473/Myoelectric/myoelectric/Libraries/XMCLib/inc\xmc_vadc.h ****  *  Structure initializing the VADC channel. Use type XMC_VADC_CHANNEL_CONFIG_t for this enumeratio
 857:N:/EECS 473/Myoelectric/myoelectric/Libraries/XMCLib/inc\xmc_vadc.h ****  */
 858:N:/EECS 473/Myoelectric/myoelectric/Libraries/XMCLib/inc\xmc_vadc.h **** typedef struct XMC_VADC_CHANNEL_CONFIG
 859:N:/EECS 473/Myoelectric/myoelectric/Libraries/XMCLib/inc\xmc_vadc.h **** {
 860:N:/EECS 473/Myoelectric/myoelectric/Libraries/XMCLib/inc\xmc_vadc.h ****     union
 861:N:/EECS 473/Myoelectric/myoelectric/Libraries/XMCLib/inc\xmc_vadc.h ****     {
 862:N:/EECS 473/Myoelectric/myoelectric/Libraries/XMCLib/inc\xmc_vadc.h ****        struct
 863:N:/EECS 473/Myoelectric/myoelectric/Libraries/XMCLib/inc\xmc_vadc.h ****        {
 864:N:/EECS 473/Myoelectric/myoelectric/Libraries/XMCLib/inc\xmc_vadc.h ****           uint32_t input_class                : 2;  /**< Input conversion class selection.
 865:N:/EECS 473/Myoelectric/myoelectric/Libraries/XMCLib/inc\xmc_vadc.h ****                                                          Uses @ref XMC_VADC_CHANNEL_CONV_t */
 866:N:/EECS 473/Myoelectric/myoelectric/Libraries/XMCLib/inc\xmc_vadc.h ****           uint32_t                            : 2;
 867:N:/EECS 473/Myoelectric/myoelectric/Libraries/XMCLib/inc\xmc_vadc.h ****           uint32_t lower_boundary_select      : 2;  /**< Which boundary register serves as lower bo
 868:N:/EECS 473/Myoelectric/myoelectric/Libraries/XMCLib/inc\xmc_vadc.h ****                                                          Accepts enum @ref XMC_VADC_CHANNEL_BOUNDAR
 869:N:/EECS 473/Myoelectric/myoelectric/Libraries/XMCLib/inc\xmc_vadc.h ****           uint32_t upper_boundary_select      : 2;  /**< Which boundary register serves as upper bo
 870:N:/EECS 473/Myoelectric/myoelectric/Libraries/XMCLib/inc\xmc_vadc.h ****                                                          Accepts enum @ref XMC_VADC_CHANNEL_BOUNDAR
 871:N:/EECS 473/Myoelectric/myoelectric/Libraries/XMCLib/inc\xmc_vadc.h ****           uint32_t event_gen_criteria         : 2;  /**< When should an event be generated?
 872:N:/EECS 473/Myoelectric/myoelectric/Libraries/XMCLib/inc\xmc_vadc.h ****                                                          Uses @ref XMC_VADC_CHANNEL_EVGEN_t */
 873:N:/EECS 473/Myoelectric/myoelectric/Libraries/XMCLib/inc\xmc_vadc.h ****           uint32_t sync_conversion            : 1;  /**< Enables synchronous conversion for the con
 874:N:/EECS 473/Myoelectric/myoelectric/Libraries/XMCLib/inc\xmc_vadc.h ****           uint32_t alternate_reference        : 1;  /**< Input reference voltage selection either V
 875:N:/EECS 473/Myoelectric/myoelectric/Libraries/XMCLib/inc\xmc_vadc.h ****                                                          Uses @ref XMC_VADC_CHANNEL_REF_t*/
 876:N:/EECS 473/Myoelectric/myoelectric/Libraries/XMCLib/inc\xmc_vadc.h ****           uint32_t                            : 4;
 877:N:/EECS 473/Myoelectric/myoelectric/Libraries/XMCLib/inc\xmc_vadc.h ****           uint32_t result_reg_number          : 4;  /**< Group result register number */
 878:N:/EECS 473/Myoelectric/myoelectric/Libraries/XMCLib/inc\xmc_vadc.h ****           uint32_t use_global_result          : 1;  /**< Use global result register for background 
 879:N:/EECS 473/Myoelectric/myoelectric/Libraries/XMCLib/inc\xmc_vadc.h ****           uint32_t result_alignment           : 1;  /**< Alignment of the results read in the resul
 880:N:/EECS 473/Myoelectric/myoelectric/Libraries/XMCLib/inc\xmc_vadc.h ****                                                          Uses @ref XMC_VADC_RESULT_ALIGN_t */
 881:N:/EECS 473/Myoelectric/myoelectric/Libraries/XMCLib/inc\xmc_vadc.h ****           uint32_t                            : 6;
 882:N:/EECS 473/Myoelectric/myoelectric/Libraries/XMCLib/inc\xmc_vadc.h ****           uint32_t broken_wire_detect_channel : 2;  /**< Source to be used to charge the capacitor 
 883:N:/EECS 473/Myoelectric/myoelectric/Libraries/XMCLib/inc\xmc_vadc.h ****                                                          Uses @ref XMC_VADC_CHANNEL_BWDCH_t. */
 884:N:/EECS 473/Myoelectric/myoelectric/Libraries/XMCLib/inc\xmc_vadc.h ****           uint32_t broken_wire_detect         : 1;  /**< Configures extra phase before the capacito
 885:N:/EECS 473/Myoelectric/myoelectric/Libraries/XMCLib/inc\xmc_vadc.h ****        };
 886:N:/EECS 473/Myoelectric/myoelectric/Libraries/XMCLib/inc\xmc_vadc.h ****        uint32_t chctr;
 887:N:/EECS 473/Myoelectric/myoelectric/Libraries/XMCLib/inc\xmc_vadc.h ****     };
 888:N:/EECS 473/Myoelectric/myoelectric/Libraries/XMCLib/inc\xmc_vadc.h ****     union
 889:N:/EECS 473/Myoelectric/myoelectric/Libraries/XMCLib/inc\xmc_vadc.h ****     {
 890:N:/EECS 473/Myoelectric/myoelectric/Libraries/XMCLib/inc\xmc_vadc.h ****        struct
 891:N:/EECS 473/Myoelectric/myoelectric/Libraries/XMCLib/inc\xmc_vadc.h ****        {
 892:N:/EECS 473/Myoelectric/myoelectric/Libraries/XMCLib/inc\xmc_vadc.h ****           uint32_t                           : 8;
 893:N:/EECS 473/Myoelectric/myoelectric/Libraries/XMCLib/inc\xmc_vadc.h **** #if (XMC_VADC_BOUNDARY_FLAG_SELECT == 1U)
 894:N:/EECS 473/Myoelectric/myoelectric/Libraries/XMCLib/inc\xmc_vadc.h ****           uint32_t flag_output_condition_ch0 : 1; /**< Condition for which the boundary flag should
 895:N:/EECS 473/Myoelectric/myoelectric/Libraries/XMCLib/inc\xmc_vadc.h ****                                                        Uses @ref XMC_VADC_CHANNEL_BOUNDARY_CONDITIO
 896:N:/EECS 473/Myoelectric/myoelectric/Libraries/XMCLib/inc\xmc_vadc.h ****           uint32_t flag_output_condition_ch1 : 1; /**< Condition for which the boundary flag should
 897:N:/EECS 473/Myoelectric/myoelectric/Libraries/XMCLib/inc\xmc_vadc.h ****                                                          Uses @ref XMC_VADC_CHANNEL_BOUNDARY_CONDIT
 898:N:/EECS 473/Myoelectric/myoelectric/Libraries/XMCLib/inc\xmc_vadc.h ****           uint32_t flag_output_condition_ch2 : 1; /**< Condition for which the boundary flag should
 899:N:/EECS 473/Myoelectric/myoelectric/Libraries/XMCLib/inc\xmc_vadc.h ****                                                          Uses @ref XMC_VADC_CHANNEL_BOUNDARY_CONDIT
 900:N:/EECS 473/Myoelectric/myoelectric/Libraries/XMCLib/inc\xmc_vadc.h ****           uint32_t flag_output_condition_ch3 : 1; /**< Condition for which the boundary flag should
 901:N:/EECS 473/Myoelectric/myoelectric/Libraries/XMCLib/inc\xmc_vadc.h ****                                                          Uses @ref XMC_VADC_CHANNEL_BOUNDARY_CONDIT
 902:N:/EECS 473/Myoelectric/myoelectric/Libraries/XMCLib/inc\xmc_vadc.h **** #else
 903:N:/EECS 473/Myoelectric/myoelectric/Libraries/XMCLib/inc\xmc_vadc.h ****           uint32_t                           : 4;
 904:N:/EECS 473/Myoelectric/myoelectric/Libraries/XMCLib/inc\xmc_vadc.h **** #endif
 905:N:/EECS 473/Myoelectric/myoelectric/Libraries/XMCLib/inc\xmc_vadc.h ****           uint32_t                           : 4;
 906:N:/EECS 473/Myoelectric/myoelectric/Libraries/XMCLib/inc\xmc_vadc.h **** #if (XMC_VADC_BOUNDARY_FLAG_SELECT == 1U)
 907:N:/EECS 473/Myoelectric/myoelectric/Libraries/XMCLib/inc\xmc_vadc.h ****           uint32_t invert_boundary_flag_ch0  : 1; /**< Inverts boundary flag output.*/
 908:N:/EECS 473/Myoelectric/myoelectric/Libraries/XMCLib/inc\xmc_vadc.h ****           uint32_t invert_boundary_flag_ch1  : 1; /**< Inverts boundary flag output.*/
 909:N:/EECS 473/Myoelectric/myoelectric/Libraries/XMCLib/inc\xmc_vadc.h ****           uint32_t invert_boundary_flag_ch2  : 1; /**< Inverts boundary flag output.*/
 910:N:/EECS 473/Myoelectric/myoelectric/Libraries/XMCLib/inc\xmc_vadc.h ****           uint32_t invert_boundary_flag_ch3  : 1; /**< Inverts boundary flag output.*/
 911:N:/EECS 473/Myoelectric/myoelectric/Libraries/XMCLib/inc\xmc_vadc.h **** 
 912:N:/EECS 473/Myoelectric/myoelectric/Libraries/XMCLib/inc\xmc_vadc.h **** #else
 913:N:/EECS 473/Myoelectric/myoelectric/Libraries/XMCLib/inc\xmc_vadc.h ****           uint32_t boundary_flag_output_ch0  : 1; /**< Enable the boundary flag output on the speci
 914:N:/EECS 473/Myoelectric/myoelectric/Libraries/XMCLib/inc\xmc_vadc.h ****           uint32_t boundary_flag_output_ch1  : 1; /**< Enable the boundary flag output on the speci
 915:N:/EECS 473/Myoelectric/myoelectric/Libraries/XMCLib/inc\xmc_vadc.h ****           uint32_t boundary_flag_output_ch2  : 1; /**< Enable the boundary flag output on the speci
 916:N:/EECS 473/Myoelectric/myoelectric/Libraries/XMCLib/inc\xmc_vadc.h ****           uint32_t boundary_flag_output_ch3  : 1; /**< Enable the boundary flag output on the speci
 917:N:/EECS 473/Myoelectric/myoelectric/Libraries/XMCLib/inc\xmc_vadc.h **** #endif
 918:N:/EECS 473/Myoelectric/myoelectric/Libraries/XMCLib/inc\xmc_vadc.h ****           uint32_t                           : 12;
 919:N:/EECS 473/Myoelectric/myoelectric/Libraries/XMCLib/inc\xmc_vadc.h ****        };
 920:N:/EECS 473/Myoelectric/myoelectric/Libraries/XMCLib/inc\xmc_vadc.h ****        uint32_t bfl;
 921:N:/EECS 473/Myoelectric/myoelectric/Libraries/XMCLib/inc\xmc_vadc.h ****     };
 922:N:/EECS 473/Myoelectric/myoelectric/Libraries/XMCLib/inc\xmc_vadc.h **** #if (XMC_VADC_BOUNDARY_FLAG_SELECT == 1U)
 923:N:/EECS 473/Myoelectric/myoelectric/Libraries/XMCLib/inc\xmc_vadc.h ****     union
 924:N:/EECS 473/Myoelectric/myoelectric/Libraries/XMCLib/inc\xmc_vadc.h ****     {
 925:N:/EECS 473/Myoelectric/myoelectric/Libraries/XMCLib/inc\xmc_vadc.h ****        struct
 926:N:/EECS 473/Myoelectric/myoelectric/Libraries/XMCLib/inc\xmc_vadc.h ****        {
 927:N:/EECS 473/Myoelectric/myoelectric/Libraries/XMCLib/inc\xmc_vadc.h ****          uint32_t boundary_flag_mode_ch0    : 4; /**< Specify the basic operation of boundary flag 
 928:N:/EECS 473/Myoelectric/myoelectric/Libraries/XMCLib/inc\xmc_vadc.h ****                                                       Uses @ref  XMC_VADC_GROUP_BOUNDARY_FLAG_MODE_
 929:N:/EECS 473/Myoelectric/myoelectric/Libraries/XMCLib/inc\xmc_vadc.h ****          uint32_t boundary_flag_mode_ch1    : 4; /**< Specify the basic operation of boundary flag 
 930:N:/EECS 473/Myoelectric/myoelectric/Libraries/XMCLib/inc\xmc_vadc.h ****                                                       Uses @ref  XMC_VADC_GROUP_BOUNDARY_FLAG_MODE_
 931:N:/EECS 473/Myoelectric/myoelectric/Libraries/XMCLib/inc\xmc_vadc.h ****          uint32_t boundary_flag_mode_ch2    : 4; /**< Specify the basic operation of boundary flag 
 932:N:/EECS 473/Myoelectric/myoelectric/Libraries/XMCLib/inc\xmc_vadc.h ****                                                       Uses @ref  XMC_VADC_GROUP_BOUNDARY_FLAG_MODE_
 933:N:/EECS 473/Myoelectric/myoelectric/Libraries/XMCLib/inc\xmc_vadc.h ****          uint32_t boundary_flag_mode_ch3    : 4; /**< Specify the basic operation of boundary flag 
 934:N:/EECS 473/Myoelectric/myoelectric/Libraries/XMCLib/inc\xmc_vadc.h ****                                                       Uses @ref  XMC_VADC_GROUP_BOUNDARY_FLAG_MODE_
 935:N:/EECS 473/Myoelectric/myoelectric/Libraries/XMCLib/inc\xmc_vadc.h ****          uint32_t                           : 16;
 936:N:/EECS 473/Myoelectric/myoelectric/Libraries/XMCLib/inc\xmc_vadc.h ****        };
 937:N:/EECS 473/Myoelectric/myoelectric/Libraries/XMCLib/inc\xmc_vadc.h ****        uint32_t bflc;
 938:N:/EECS 473/Myoelectric/myoelectric/Libraries/XMCLib/inc\xmc_vadc.h ****     };
 939:N:/EECS 473/Myoelectric/myoelectric/Libraries/XMCLib/inc\xmc_vadc.h **** #endif
 940:N:/EECS 473/Myoelectric/myoelectric/Libraries/XMCLib/inc\xmc_vadc.h ****     bool    channel_priority;  /**< Only non priority channels can be converted by Background Reque
 941:N:/EECS 473/Myoelectric/myoelectric/Libraries/XMCLib/inc\xmc_vadc.h ****     int8_t  alias_channel;     /**< Specifies the channel which has to be aliased with CH0/CH1 (whi
 942:N:/EECS 473/Myoelectric/myoelectric/Libraries/XMCLib/inc\xmc_vadc.h ****                                     Force the value to \b(int8_t)-1 to bypass alias feature.
 943:N:/EECS 473/Myoelectric/myoelectric/Libraries/XMCLib/inc\xmc_vadc.h ****                                     Uses @ref XMC_VADC_CHANNEL_ALIAS_t  for configuration.*/
 944:N:/EECS 473/Myoelectric/myoelectric/Libraries/XMCLib/inc\xmc_vadc.h **** } XMC_VADC_CHANNEL_CONFIG_t;
 945:N:/EECS 473/Myoelectric/myoelectric/Libraries/XMCLib/inc\xmc_vadc.h **** 
 946:N:/EECS 473/Myoelectric/myoelectric/Libraries/XMCLib/inc\xmc_vadc.h **** /**
 947:N:/EECS 473/Myoelectric/myoelectric/Libraries/XMCLib/inc\xmc_vadc.h ****  *  Structure to initialize a queue entry. Use type @ref XMC_VADC_QUEUE_ENTRY_t.
 948:N:/EECS 473/Myoelectric/myoelectric/Libraries/XMCLib/inc\xmc_vadc.h ****  */
 949:N:/EECS 473/Myoelectric/myoelectric/Libraries/XMCLib/inc\xmc_vadc.h **** typedef struct XMC_VADC_QUEUE_ENTRY
 950:N:/EECS 473/Myoelectric/myoelectric/Libraries/XMCLib/inc\xmc_vadc.h **** {
 951:N:/EECS 473/Myoelectric/myoelectric/Libraries/XMCLib/inc\xmc_vadc.h ****     union
 952:N:/EECS 473/Myoelectric/myoelectric/Libraries/XMCLib/inc\xmc_vadc.h ****     {
 953:N:/EECS 473/Myoelectric/myoelectric/Libraries/XMCLib/inc\xmc_vadc.h ****        struct
 954:N:/EECS 473/Myoelectric/myoelectric/Libraries/XMCLib/inc\xmc_vadc.h ****        {
 955:N:/EECS 473/Myoelectric/myoelectric/Libraries/XMCLib/inc\xmc_vadc.h ****           uint32_t channel_num        : 5;  /**< Channel number associated with this queue entry.<B
 956:N:/EECS 473/Myoelectric/myoelectric/Libraries/XMCLib/inc\xmc_vadc.h ****           uint32_t refill_needed      : 1;  /**< Conversion completed channel gets inserted back in
 957:N:/EECS 473/Myoelectric/myoelectric/Libraries/XMCLib/inc\xmc_vadc.h ****           uint32_t generate_interrupt : 1;  /**< Generates a queue request source event */
 958:N:/EECS 473/Myoelectric/myoelectric/Libraries/XMCLib/inc\xmc_vadc.h ****           uint32_t external_trigger   : 1;  /**< Conversion requests are raised on an external trig
 959:N:/EECS 473/Myoelectric/myoelectric/Libraries/XMCLib/inc\xmc_vadc.h ****           uint32_t                    : 24;
 960:N:/EECS 473/Myoelectric/myoelectric/Libraries/XMCLib/inc\xmc_vadc.h **** 
 961:N:/EECS 473/Myoelectric/myoelectric/Libraries/XMCLib/inc\xmc_vadc.h ****        };
 962:N:/EECS 473/Myoelectric/myoelectric/Libraries/XMCLib/inc\xmc_vadc.h ****        uint32_t qinr0;
 963:N:/EECS 473/Myoelectric/myoelectric/Libraries/XMCLib/inc\xmc_vadc.h ****     };
 964:N:/EECS 473/Myoelectric/myoelectric/Libraries/XMCLib/inc\xmc_vadc.h **** } XMC_VADC_QUEUE_ENTRY_t;
 965:N:/EECS 473/Myoelectric/myoelectric/Libraries/XMCLib/inc\xmc_vadc.h **** 
 966:N:/EECS 473/Myoelectric/myoelectric/Libraries/XMCLib/inc\xmc_vadc.h **** /**
 967:N:/EECS 473/Myoelectric/myoelectric/Libraries/XMCLib/inc\xmc_vadc.h ****  *  Structure initializing a VADC queue request source. Use type @ref XMC_VADC_QUEUE_CONFIG_t.
 968:N:/EECS 473/Myoelectric/myoelectric/Libraries/XMCLib/inc\xmc_vadc.h ****  */
 969:N:/EECS 473/Myoelectric/myoelectric/Libraries/XMCLib/inc\xmc_vadc.h **** typedef struct XMC_VADC_QUEUE_CONFIG
 970:N:/EECS 473/Myoelectric/myoelectric/Libraries/XMCLib/inc\xmc_vadc.h **** {
 971:N:/EECS 473/Myoelectric/myoelectric/Libraries/XMCLib/inc\xmc_vadc.h ****     uint32_t conv_start_mode  : 2;  /**< One converter is shared between the queue and scan request
 972:N:/EECS 473/Myoelectric/myoelectric/Libraries/XMCLib/inc\xmc_vadc.h ****                                          group. This field determines how queue request source woul
 973:N:/EECS 473/Myoelectric/myoelectric/Libraries/XMCLib/inc\xmc_vadc.h ****                                          conversion. Uses @ref XMC_VADC_STARTMODE_t */
 974:N:/EECS 473/Myoelectric/myoelectric/Libraries/XMCLib/inc\xmc_vadc.h ****     uint32_t req_src_priority : 2;  /**< Request source priority for the arbiter.Uses @ref XMC_VADC
 975:N:/EECS 473/Myoelectric/myoelectric/Libraries/XMCLib/inc\xmc_vadc.h ****     union
 976:N:/EECS 473/Myoelectric/myoelectric/Libraries/XMCLib/inc\xmc_vadc.h ****     {
 977:N:/EECS 473/Myoelectric/myoelectric/Libraries/XMCLib/inc\xmc_vadc.h ****        struct
 978:N:/EECS 473/Myoelectric/myoelectric/Libraries/XMCLib/inc\xmc_vadc.h ****        {
 979:N:/EECS 473/Myoelectric/myoelectric/Libraries/XMCLib/inc\xmc_vadc.h **** #if(XMC_VADC_GROUP_SRCREG_AVAILABLE == (1U))
 980:N:/EECS 473/Myoelectric/myoelectric/Libraries/XMCLib/inc\xmc_vadc.h ****           uint32_t src_specific_result_reg : 4;  /**< Uses any one Group related result register as
 981:N:/EECS 473/Myoelectric/myoelectric/Libraries/XMCLib/inc\xmc_vadc.h ****                                                     for all conversions results. To use the  indivi
 982:N:/EECS 473/Myoelectric/myoelectric/Libraries/XMCLib/inc\xmc_vadc.h ****                                                     from each channel configuration, configure this
 983:N:/EECS 473/Myoelectric/myoelectric/Libraries/XMCLib/inc\xmc_vadc.h **** #else
 984:N:/EECS 473/Myoelectric/myoelectric/Libraries/XMCLib/inc\xmc_vadc.h ****           uint32_t                         : 4;
 985:N:/EECS 473/Myoelectric/myoelectric/Libraries/XMCLib/inc\xmc_vadc.h **** #endif
 986:N:/EECS 473/Myoelectric/myoelectric/Libraries/XMCLib/inc\xmc_vadc.h ****           uint32_t                         : 4;
 987:N:/EECS 473/Myoelectric/myoelectric/Libraries/XMCLib/inc\xmc_vadc.h ****           uint32_t trigger_signal          : 4;  /**< Select one of the 16 possibilities for trigge
 988:N:/EECS 473/Myoelectric/myoelectric/Libraries/XMCLib/inc\xmc_vadc.h ****                                                       Uses @ref XMC_VADC_TRIGGER_INPUT_SELECT_t */
 989:N:/EECS 473/Myoelectric/myoelectric/Libraries/XMCLib/inc\xmc_vadc.h ****           uint32_t                         : 1;
 990:N:/EECS 473/Myoelectric/myoelectric/Libraries/XMCLib/inc\xmc_vadc.h ****           uint32_t trigger_edge            : 2;  /**< Edge selection for trigger signal.
 991:N:/EECS 473/Myoelectric/myoelectric/Libraries/XMCLib/inc\xmc_vadc.h ****                                                       Uses @ref XMC_VADC_TRIGGER_EDGE_t */
 992:N:/EECS 473/Myoelectric/myoelectric/Libraries/XMCLib/inc\xmc_vadc.h ****           uint32_t                         : 1;
 993:N:/EECS 473/Myoelectric/myoelectric/Libraries/XMCLib/inc\xmc_vadc.h ****           uint32_t gate_signal             : 4;  /**< Select one of the 16 possibilities for gating
 994:N:/EECS 473/Myoelectric/myoelectric/Libraries/XMCLib/inc\xmc_vadc.h ****                                                       Uses @ref XMC_VADC_GATE_INPUT_SELECT_t */
 995:N:/EECS 473/Myoelectric/myoelectric/Libraries/XMCLib/inc\xmc_vadc.h ****           uint32_t                         : 8;
 996:N:/EECS 473/Myoelectric/myoelectric/Libraries/XMCLib/inc\xmc_vadc.h ****           uint32_t timer_mode              : 1;  /**< Timer mode for equi-distant sampling shall be
 997:N:/EECS 473/Myoelectric/myoelectric/Libraries/XMCLib/inc\xmc_vadc.h ****           uint32_t                         : 3;
 998:N:/EECS 473/Myoelectric/myoelectric/Libraries/XMCLib/inc\xmc_vadc.h ****        };
 999:N:/EECS 473/Myoelectric/myoelectric/Libraries/XMCLib/inc\xmc_vadc.h ****        uint32_t qctrl0;
1000:N:/EECS 473/Myoelectric/myoelectric/Libraries/XMCLib/inc\xmc_vadc.h ****     };
1001:N:/EECS 473/Myoelectric/myoelectric/Libraries/XMCLib/inc\xmc_vadc.h ****     union
1002:N:/EECS 473/Myoelectric/myoelectric/Libraries/XMCLib/inc\xmc_vadc.h ****     {
1003:N:/EECS 473/Myoelectric/myoelectric/Libraries/XMCLib/inc\xmc_vadc.h ****        struct
1004:N:/EECS 473/Myoelectric/myoelectric/Libraries/XMCLib/inc\xmc_vadc.h ****        {
1005:N:/EECS 473/Myoelectric/myoelectric/Libraries/XMCLib/inc\xmc_vadc.h ****           uint32_t                   : 2;
1006:N:/EECS 473/Myoelectric/myoelectric/Libraries/XMCLib/inc\xmc_vadc.h ****           uint32_t external_trigger  : 1;  /**< Are external triggers supported? */
1007:N:/EECS 473/Myoelectric/myoelectric/Libraries/XMCLib/inc\xmc_vadc.h ****           uint32_t                   : 29;
1008:N:/EECS 473/Myoelectric/myoelectric/Libraries/XMCLib/inc\xmc_vadc.h ****        };
1009:N:/EECS 473/Myoelectric/myoelectric/Libraries/XMCLib/inc\xmc_vadc.h ****        uint32_t qmr0;
1010:N:/EECS 473/Myoelectric/myoelectric/Libraries/XMCLib/inc\xmc_vadc.h ****     };
1011:N:/EECS 473/Myoelectric/myoelectric/Libraries/XMCLib/inc\xmc_vadc.h **** } XMC_VADC_QUEUE_CONFIG_t;
1012:N:/EECS 473/Myoelectric/myoelectric/Libraries/XMCLib/inc\xmc_vadc.h **** 
1013:N:/EECS 473/Myoelectric/myoelectric/Libraries/XMCLib/inc\xmc_vadc.h **** 
1014:N:/EECS 473/Myoelectric/myoelectric/Libraries/XMCLib/inc\xmc_vadc.h **** /**
1015:N:/EECS 473/Myoelectric/myoelectric/Libraries/XMCLib/inc\xmc_vadc.h ****  *  Structure to initialize the global input class configuration. Configured parameters are sample 
1016:N:/EECS 473/Myoelectric/myoelectric/Libraries/XMCLib/inc\xmc_vadc.h ****  *  conversion Mode.
1017:N:/EECS 473/Myoelectric/myoelectric/Libraries/XMCLib/inc\xmc_vadc.h ****  */
1018:N:/EECS 473/Myoelectric/myoelectric/Libraries/XMCLib/inc\xmc_vadc.h **** typedef struct XMC_VADC_GLOBAL_CLASS
1019:N:/EECS 473/Myoelectric/myoelectric/Libraries/XMCLib/inc\xmc_vadc.h **** {
1020:N:/EECS 473/Myoelectric/myoelectric/Libraries/XMCLib/inc\xmc_vadc.h ****     union
1021:N:/EECS 473/Myoelectric/myoelectric/Libraries/XMCLib/inc\xmc_vadc.h ****     {
1022:N:/EECS 473/Myoelectric/myoelectric/Libraries/XMCLib/inc\xmc_vadc.h ****        struct
1023:N:/EECS 473/Myoelectric/myoelectric/Libraries/XMCLib/inc\xmc_vadc.h ****        {
1024:N:/EECS 473/Myoelectric/myoelectric/Libraries/XMCLib/inc\xmc_vadc.h ****           uint32_t sample_time_std_conv            : 5;  /**< Sample time for channels directly con
1025:N:/EECS 473/Myoelectric/myoelectric/Libraries/XMCLib/inc\xmc_vadc.h ****                                                               <BR>Range: [0x0 to 0x1F] */
1026:N:/EECS 473/Myoelectric/myoelectric/Libraries/XMCLib/inc\xmc_vadc.h ****           uint32_t                                 : 3;
1027:N:/EECS 473/Myoelectric/myoelectric/Libraries/XMCLib/inc\xmc_vadc.h ****           uint32_t conversion_mode_standard        : 3;  /**< Conversion mode for channels directly
1028:N:/EECS 473/Myoelectric/myoelectric/Libraries/XMCLib/inc\xmc_vadc.h ****                                                               Uses @ref XMC_VADC_CONVMODE_t */
1029:N:/EECS 473/Myoelectric/myoelectric/Libraries/XMCLib/inc\xmc_vadc.h ****           uint32_t                                 : 5;
1030:N:/EECS 473/Myoelectric/myoelectric/Libraries/XMCLib/inc\xmc_vadc.h **** #if(XMC_VADC_EMUX_AVAILABLE == 1U)
1031:N:/EECS 473/Myoelectric/myoelectric/Libraries/XMCLib/inc\xmc_vadc.h ****           uint32_t sampling_phase_emux_channel     : 5;  /**< Sample time for channels connected vi
1032:N:/EECS 473/Myoelectric/myoelectric/Libraries/XMCLib/inc\xmc_vadc.h ****                                                               <BR>Range: [0x0 to 0x1F] */
1033:N:/EECS 473/Myoelectric/myoelectric/Libraries/XMCLib/inc\xmc_vadc.h ****           uint32_t                                 : 3;
1034:N:/EECS 473/Myoelectric/myoelectric/Libraries/XMCLib/inc\xmc_vadc.h ****           uint32_t conversion_mode_emux            : 3;  /**< Conversion mode for channels connecte
1035:N:/EECS 473/Myoelectric/myoelectric/Libraries/XMCLib/inc\xmc_vadc.h ****                                                               Uses @ref XMC_VADC_CONVMODE_t */
1036:N:/EECS 473/Myoelectric/myoelectric/Libraries/XMCLib/inc\xmc_vadc.h ****           uint32_t                                 : 5;
1037:N:/EECS 473/Myoelectric/myoelectric/Libraries/XMCLib/inc\xmc_vadc.h **** #else
1038:N:/EECS 473/Myoelectric/myoelectric/Libraries/XMCLib/inc\xmc_vadc.h ****           uint32_t                                 : 16;
1039:N:/EECS 473/Myoelectric/myoelectric/Libraries/XMCLib/inc\xmc_vadc.h **** #endif
1040:N:/EECS 473/Myoelectric/myoelectric/Libraries/XMCLib/inc\xmc_vadc.h ****        };
1041:N:/EECS 473/Myoelectric/myoelectric/Libraries/XMCLib/inc\xmc_vadc.h ****        uint32_t globiclass;
1042:N:/EECS 473/Myoelectric/myoelectric/Libraries/XMCLib/inc\xmc_vadc.h ****     };
1043:N:/EECS 473/Myoelectric/myoelectric/Libraries/XMCLib/inc\xmc_vadc.h **** } XMC_VADC_GLOBAL_CLASS_t;
1044:N:/EECS 473/Myoelectric/myoelectric/Libraries/XMCLib/inc\xmc_vadc.h **** 
1045:N:/EECS 473/Myoelectric/myoelectric/Libraries/XMCLib/inc\xmc_vadc.h **** #if (XMC_VADC_GROUP_AVAILABLE != 0U)
1046:N:/EECS 473/Myoelectric/myoelectric/Libraries/XMCLib/inc\xmc_vadc.h **** /**
1047:N:/EECS 473/Myoelectric/myoelectric/Libraries/XMCLib/inc\xmc_vadc.h ****  *   Structure to initialize converter and arbiter clock configuration
1048:N:/EECS 473/Myoelectric/myoelectric/Libraries/XMCLib/inc\xmc_vadc.h ****  */
1049:N:/EECS 473/Myoelectric/myoelectric/Libraries/XMCLib/inc\xmc_vadc.h **** typedef struct XMC_VADC_GLOBAL_CLOCK
1050:N:/EECS 473/Myoelectric/myoelectric/Libraries/XMCLib/inc\xmc_vadc.h **** {
1051:N:/EECS 473/Myoelectric/myoelectric/Libraries/XMCLib/inc\xmc_vadc.h ****     union
1052:N:/EECS 473/Myoelectric/myoelectric/Libraries/XMCLib/inc\xmc_vadc.h ****     {
1053:N:/EECS 473/Myoelectric/myoelectric/Libraries/XMCLib/inc\xmc_vadc.h ****        struct
1054:N:/EECS 473/Myoelectric/myoelectric/Libraries/XMCLib/inc\xmc_vadc.h ****        {
1055:N:/EECS 473/Myoelectric/myoelectric/Libraries/XMCLib/inc\xmc_vadc.h **** 
1056:N:/EECS 473/Myoelectric/myoelectric/Libraries/XMCLib/inc\xmc_vadc.h ****           uint32_t analog_clock_divider     : 5;  /**< Clock for the converter. <BR>Range: [0x0 to 
1057:N:/EECS 473/Myoelectric/myoelectric/Libraries/XMCLib/inc\xmc_vadc.h ****           uint32_t                          : 2;
1058:N:/EECS 473/Myoelectric/myoelectric/Libraries/XMCLib/inc\xmc_vadc.h ****           uint32_t msb_conversion_clock     : 1;  /**< Additional clock cycle for analog converter 
1059:N:/EECS 473/Myoelectric/myoelectric/Libraries/XMCLib/inc\xmc_vadc.h ****           uint32_t arbiter_clock_divider    : 2;  /**< Request source arbiter clock divider. <BR>Ra
1060:N:/EECS 473/Myoelectric/myoelectric/Libraries/XMCLib/inc\xmc_vadc.h ****           uint32_t                          : 5;
1061:N:/EECS 473/Myoelectric/myoelectric/Libraries/XMCLib/inc\xmc_vadc.h ****           uint32_t                          : 17;
1062:N:/EECS 473/Myoelectric/myoelectric/Libraries/XMCLib/inc\xmc_vadc.h ****        };
1063:N:/EECS 473/Myoelectric/myoelectric/Libraries/XMCLib/inc\xmc_vadc.h ****        uint32_t globcfg;
1064:N:/EECS 473/Myoelectric/myoelectric/Libraries/XMCLib/inc\xmc_vadc.h ****     };
1065:N:/EECS 473/Myoelectric/myoelectric/Libraries/XMCLib/inc\xmc_vadc.h **** } XMC_VADC_GLOBAL_CLOCK_t;
1066:N:/EECS 473/Myoelectric/myoelectric/Libraries/XMCLib/inc\xmc_vadc.h **** #endif
1067:N:/EECS 473/Myoelectric/myoelectric/Libraries/XMCLib/inc\xmc_vadc.h **** 
1068:N:/EECS 473/Myoelectric/myoelectric/Libraries/XMCLib/inc\xmc_vadc.h **** 
1069:N:/EECS 473/Myoelectric/myoelectric/Libraries/XMCLib/inc\xmc_vadc.h **** /**
1070:N:/EECS 473/Myoelectric/myoelectric/Libraries/XMCLib/inc\xmc_vadc.h ****  *   Structure to initialize the VADC Global functions
1071:N:/EECS 473/Myoelectric/myoelectric/Libraries/XMCLib/inc\xmc_vadc.h ****  */
1072:N:/EECS 473/Myoelectric/myoelectric/Libraries/XMCLib/inc\xmc_vadc.h **** typedef struct XMC_VADC_GLOBAL_CONFIG
1073:N:/EECS 473/Myoelectric/myoelectric/Libraries/XMCLib/inc\xmc_vadc.h **** {
1074:N:/EECS 473/Myoelectric/myoelectric/Libraries/XMCLib/inc\xmc_vadc.h ****     union
1075:N:/EECS 473/Myoelectric/myoelectric/Libraries/XMCLib/inc\xmc_vadc.h ****     {
1076:N:/EECS 473/Myoelectric/myoelectric/Libraries/XMCLib/inc\xmc_vadc.h ****        struct
1077:N:/EECS 473/Myoelectric/myoelectric/Libraries/XMCLib/inc\xmc_vadc.h ****        {
1078:N:/EECS 473/Myoelectric/myoelectric/Libraries/XMCLib/inc\xmc_vadc.h ****           uint32_t boundary0  : 12;  /**< Boundary value for results comparison*/
1079:N:/EECS 473/Myoelectric/myoelectric/Libraries/XMCLib/inc\xmc_vadc.h ****           uint32_t            : 4;
1080:N:/EECS 473/Myoelectric/myoelectric/Libraries/XMCLib/inc\xmc_vadc.h ****           uint32_t boundary1  : 12;  /**< Boundary value for results comparison*/
1081:N:/EECS 473/Myoelectric/myoelectric/Libraries/XMCLib/inc\xmc_vadc.h ****           uint32_t            : 4;
1082:N:/EECS 473/Myoelectric/myoelectric/Libraries/XMCLib/inc\xmc_vadc.h ****        };
1083:N:/EECS 473/Myoelectric/myoelectric/Libraries/XMCLib/inc\xmc_vadc.h ****        uint32_t globbound;
1084:N:/EECS 473/Myoelectric/myoelectric/Libraries/XMCLib/inc\xmc_vadc.h ****     };
1085:N:/EECS 473/Myoelectric/myoelectric/Libraries/XMCLib/inc\xmc_vadc.h **** #if (XMC_VADC_GROUP_AVAILABLE != 0U)
1086:N:/EECS 473/Myoelectric/myoelectric/Libraries/XMCLib/inc\xmc_vadc.h ****     XMC_VADC_GLOBAL_CLOCK_t clock_config; /**< ADC clock configurations*/
1087:N:/EECS 473/Myoelectric/myoelectric/Libraries/XMCLib/inc\xmc_vadc.h **** #endif
1088:N:/EECS 473/Myoelectric/myoelectric/Libraries/XMCLib/inc\xmc_vadc.h ****     XMC_VADC_GLOBAL_CLASS_t  class0;      /**< ADC input conversion configurations for GLOBICLASS[0
1089:N:/EECS 473/Myoelectric/myoelectric/Libraries/XMCLib/inc\xmc_vadc.h ****     XMC_VADC_GLOBAL_CLASS_t  class1;      /**< ADC input conversion configurations for GLOBICLASS[1
1090:N:/EECS 473/Myoelectric/myoelectric/Libraries/XMCLib/inc\xmc_vadc.h ****     union
1091:N:/EECS 473/Myoelectric/myoelectric/Libraries/XMCLib/inc\xmc_vadc.h ****     {
1092:N:/EECS 473/Myoelectric/myoelectric/Libraries/XMCLib/inc\xmc_vadc.h ****        struct
1093:N:/EECS 473/Myoelectric/myoelectric/Libraries/XMCLib/inc\xmc_vadc.h ****        {
1094:N:/EECS 473/Myoelectric/myoelectric/Libraries/XMCLib/inc\xmc_vadc.h ****           uint32_t                         : 16;
1095:N:/EECS 473/Myoelectric/myoelectric/Libraries/XMCLib/inc\xmc_vadc.h ****           uint32_t data_reduction_control  : 4;  /**< Data reduction stages */
1096:N:/EECS 473/Myoelectric/myoelectric/Libraries/XMCLib/inc\xmc_vadc.h ****           uint32_t                         : 4;
1097:N:/EECS 473/Myoelectric/myoelectric/Libraries/XMCLib/inc\xmc_vadc.h ****           uint32_t wait_for_read_mode      : 1;  /**< Results of the next conversion will not be ov
1098:N:/EECS 473/Myoelectric/myoelectric/Libraries/XMCLib/inc\xmc_vadc.h ****                                                       result register until the previous value is r
1099:N:/EECS 473/Myoelectric/myoelectric/Libraries/XMCLib/inc\xmc_vadc.h ****           uint32_t                         : 6;
1100:N:/EECS 473/Myoelectric/myoelectric/Libraries/XMCLib/inc\xmc_vadc.h ****           uint32_t event_gen_enable        : 1;  /**< Generates an event on availability of new res
1101:N:/EECS 473/Myoelectric/myoelectric/Libraries/XMCLib/inc\xmc_vadc.h ****        };
1102:N:/EECS 473/Myoelectric/myoelectric/Libraries/XMCLib/inc\xmc_vadc.h ****        uint32_t globrcr;
1103:N:/EECS 473/Myoelectric/myoelectric/Libraries/XMCLib/inc\xmc_vadc.h ****     };
1104:N:/EECS 473/Myoelectric/myoelectric/Libraries/XMCLib/inc\xmc_vadc.h ****     union
1105:N:/EECS 473/Myoelectric/myoelectric/Libraries/XMCLib/inc\xmc_vadc.h ****     {
1106:N:/EECS 473/Myoelectric/myoelectric/Libraries/XMCLib/inc\xmc_vadc.h ****        struct
1107:N:/EECS 473/Myoelectric/myoelectric/Libraries/XMCLib/inc\xmc_vadc.h ****        {
1108:N:/EECS 473/Myoelectric/myoelectric/Libraries/XMCLib/inc\xmc_vadc.h ****           uint32_t module_disable              : 1;  /**< Disables the module clock.*/
1109:N:/EECS 473/Myoelectric/myoelectric/Libraries/XMCLib/inc\xmc_vadc.h ****           uint32_t                             : 2;
1110:N:/EECS 473/Myoelectric/myoelectric/Libraries/XMCLib/inc\xmc_vadc.h ****           uint32_t disable_sleep_mode_control  : 1;  /**< Set it to true in order to disable the Sl
1111:N:/EECS 473/Myoelectric/myoelectric/Libraries/XMCLib/inc\xmc_vadc.h ****           uint32_t                             : 28;
1112:N:/EECS 473/Myoelectric/myoelectric/Libraries/XMCLib/inc\xmc_vadc.h ****        };
1113:N:/EECS 473/Myoelectric/myoelectric/Libraries/XMCLib/inc\xmc_vadc.h ****        uint32_t clc;
1114:N:/EECS 473/Myoelectric/myoelectric/Libraries/XMCLib/inc\xmc_vadc.h ****     };
1115:N:/EECS 473/Myoelectric/myoelectric/Libraries/XMCLib/inc\xmc_vadc.h **** } XMC_VADC_GLOBAL_CONFIG_t;
1116:N:/EECS 473/Myoelectric/myoelectric/Libraries/XMCLib/inc\xmc_vadc.h **** 
1117:N:/EECS 473/Myoelectric/myoelectric/Libraries/XMCLib/inc\xmc_vadc.h **** 
1118:N:/EECS 473/Myoelectric/myoelectric/Libraries/XMCLib/inc\xmc_vadc.h **** /**
1119:N:/EECS 473/Myoelectric/myoelectric/Libraries/XMCLib/inc\xmc_vadc.h ****  *  Structure to initialize the group input class configuration. Configured parameters are sample t
1120:N:/EECS 473/Myoelectric/myoelectric/Libraries/XMCLib/inc\xmc_vadc.h ****  *  conversion Mode.
1121:N:/EECS 473/Myoelectric/myoelectric/Libraries/XMCLib/inc\xmc_vadc.h ****  */
1122:N:/EECS 473/Myoelectric/myoelectric/Libraries/XMCLib/inc\xmc_vadc.h **** typedef struct XMC_VADC_GROUP_CLASS
1123:N:/EECS 473/Myoelectric/myoelectric/Libraries/XMCLib/inc\xmc_vadc.h **** {
1124:N:/EECS 473/Myoelectric/myoelectric/Libraries/XMCLib/inc\xmc_vadc.h ****     union
1125:N:/EECS 473/Myoelectric/myoelectric/Libraries/XMCLib/inc\xmc_vadc.h ****     {
1126:N:/EECS 473/Myoelectric/myoelectric/Libraries/XMCLib/inc\xmc_vadc.h ****        struct
1127:N:/EECS 473/Myoelectric/myoelectric/Libraries/XMCLib/inc\xmc_vadc.h ****        {
1128:N:/EECS 473/Myoelectric/myoelectric/Libraries/XMCLib/inc\xmc_vadc.h ****           uint32_t sample_time_std_conv            : 5;  /**< Sample time for channels directly con
1129:N:/EECS 473/Myoelectric/myoelectric/Libraries/XMCLib/inc\xmc_vadc.h ****                                                               <BR>Range: [0x0 to 0x1F] */
1130:N:/EECS 473/Myoelectric/myoelectric/Libraries/XMCLib/inc\xmc_vadc.h ****           uint32_t                                 : 3;
1131:N:/EECS 473/Myoelectric/myoelectric/Libraries/XMCLib/inc\xmc_vadc.h ****           uint32_t conversion_mode_standard        : 3;  /**< Conversion mode for channels directly
1132:N:/EECS 473/Myoelectric/myoelectric/Libraries/XMCLib/inc\xmc_vadc.h ****                                                               Uses @ref XMC_VADC_CONVMODE_t */
1133:N:/EECS 473/Myoelectric/myoelectric/Libraries/XMCLib/inc\xmc_vadc.h ****           uint32_t                                 : 5;
1134:N:/EECS 473/Myoelectric/myoelectric/Libraries/XMCLib/inc\xmc_vadc.h ****           uint32_t sampling_phase_emux_channel     : 5;  /**< Sample time for channels connected vi
1135:N:/EECS 473/Myoelectric/myoelectric/Libraries/XMCLib/inc\xmc_vadc.h ****                                                               <BR>Range: [0x0 to 0x1F] */
1136:N:/EECS 473/Myoelectric/myoelectric/Libraries/XMCLib/inc\xmc_vadc.h ****           uint32_t                                 : 3;
1137:N:/EECS 473/Myoelectric/myoelectric/Libraries/XMCLib/inc\xmc_vadc.h ****           uint32_t conversion_mode_emux            : 3;  /**< Conversion mode for channels connecte
1138:N:/EECS 473/Myoelectric/myoelectric/Libraries/XMCLib/inc\xmc_vadc.h ****                                                               Uses @ref XMC_VADC_CONVMODE_t */
1139:N:/EECS 473/Myoelectric/myoelectric/Libraries/XMCLib/inc\xmc_vadc.h ****           uint32_t                                 : 5;
1140:N:/EECS 473/Myoelectric/myoelectric/Libraries/XMCLib/inc\xmc_vadc.h ****        };
1141:N:/EECS 473/Myoelectric/myoelectric/Libraries/XMCLib/inc\xmc_vadc.h ****        uint32_t g_iclass0;
1142:N:/EECS 473/Myoelectric/myoelectric/Libraries/XMCLib/inc\xmc_vadc.h ****     };
1143:N:/EECS 473/Myoelectric/myoelectric/Libraries/XMCLib/inc\xmc_vadc.h **** } XMC_VADC_GROUP_CLASS_t;
1144:N:/EECS 473/Myoelectric/myoelectric/Libraries/XMCLib/inc\xmc_vadc.h **** 
1145:N:/EECS 473/Myoelectric/myoelectric/Libraries/XMCLib/inc\xmc_vadc.h **** 
1146:N:/EECS 473/Myoelectric/myoelectric/Libraries/XMCLib/inc\xmc_vadc.h **** /**
1147:N:/EECS 473/Myoelectric/myoelectric/Libraries/XMCLib/inc\xmc_vadc.h ****  *  EMUX related configuration structure.
1148:N:/EECS 473/Myoelectric/myoelectric/Libraries/XMCLib/inc\xmc_vadc.h ****  */
1149:N:/EECS 473/Myoelectric/myoelectric/Libraries/XMCLib/inc\xmc_vadc.h **** typedef struct XMC_VADC_GROUP_EMUXCFG
1150:N:/EECS 473/Myoelectric/myoelectric/Libraries/XMCLib/inc\xmc_vadc.h **** {
1151:N:/EECS 473/Myoelectric/myoelectric/Libraries/XMCLib/inc\xmc_vadc.h ****     union
1152:N:/EECS 473/Myoelectric/myoelectric/Libraries/XMCLib/inc\xmc_vadc.h ****     {
1153:N:/EECS 473/Myoelectric/myoelectric/Libraries/XMCLib/inc\xmc_vadc.h ****        struct
1154:N:/EECS 473/Myoelectric/myoelectric/Libraries/XMCLib/inc\xmc_vadc.h ****        {
1155:N:/EECS 473/Myoelectric/myoelectric/Libraries/XMCLib/inc\xmc_vadc.h ****           uint32_t starting_external_channel : 3;  /**< External channel number to which the VADC w
1156:N:/EECS 473/Myoelectric/myoelectric/Libraries/XMCLib/inc\xmc_vadc.h ****                                                         generate a control signal (needed to select
1157:N:/EECS 473/Myoelectric/myoelectric/Libraries/XMCLib/inc\xmc_vadc.h ****                                                         the analog multiplexer)*/
1158:N:/EECS 473/Myoelectric/myoelectric/Libraries/XMCLib/inc\xmc_vadc.h ****           uint32_t                           : 13;
1159:N:/EECS 473/Myoelectric/myoelectric/Libraries/XMCLib/inc\xmc_vadc.h **** #if (XMC_VADC_EMUX_CH_SEL_STYLE == 1U)
1160:N:/EECS 473/Myoelectric/myoelectric/Libraries/XMCLib/inc\xmc_vadc.h ****           uint32_t connected_channel         : 10; /**< The Channel to which the EMUX is connected.
1161:N:/EECS 473/Myoelectric/myoelectric/Libraries/XMCLib/inc\xmc_vadc.h **** #else
1162:N:/EECS 473/Myoelectric/myoelectric/Libraries/XMCLib/inc\xmc_vadc.h ****           uint32_t connected_channel         : 5;  /**< The Channel to which the EMUX is connected.
1163:N:/EECS 473/Myoelectric/myoelectric/Libraries/XMCLib/inc\xmc_vadc.h ****           uint32_t                           : 5;
1164:N:/EECS 473/Myoelectric/myoelectric/Libraries/XMCLib/inc\xmc_vadc.h **** #endif
1165:N:/EECS 473/Myoelectric/myoelectric/Libraries/XMCLib/inc\xmc_vadc.h ****           uint32_t emux_mode                 : 2;  /**< Selects the external multiplexer modes: Ste
1166:N:/EECS 473/Myoelectric/myoelectric/Libraries/XMCLib/inc\xmc_vadc.h ****                                                         Uses @ref XMC_VADC_GROUP_EMUXMODE_t*/
1167:N:/EECS 473/Myoelectric/myoelectric/Libraries/XMCLib/inc\xmc_vadc.h ****           uint32_t emux_coding               : 1;  /**< Select Binary or Gray coding. Uses @ref XMC
1168:N:/EECS 473/Myoelectric/myoelectric/Libraries/XMCLib/inc\xmc_vadc.h ****           uint32_t stce_usage                : 1;  /**< Use STCE for each conversion of an external
1169:N:/EECS 473/Myoelectric/myoelectric/Libraries/XMCLib/inc\xmc_vadc.h **** #if (XMC_VADC_EMUX_CH_SEL_STYLE == 1U)
1170:N:/EECS 473/Myoelectric/myoelectric/Libraries/XMCLib/inc\xmc_vadc.h ****           uint32_t emux_channel_select_style : 1;  /**< Selects the style of configuring the \b con
1171:N:/EECS 473/Myoelectric/myoelectric/Libraries/XMCLib/inc\xmc_vadc.h ****                                                         (Each bit represents the channel or entire 
1172:N:/EECS 473/Myoelectric/myoelectric/Libraries/XMCLib/inc\xmc_vadc.h ****           uint32_t                           : 1;
1173:N:/EECS 473/Myoelectric/myoelectric/Libraries/XMCLib/inc\xmc_vadc.h **** #else
1174:N:/EECS 473/Myoelectric/myoelectric/Libraries/XMCLib/inc\xmc_vadc.h ****           uint32_t                           : 2;
1175:N:/EECS 473/Myoelectric/myoelectric/Libraries/XMCLib/inc\xmc_vadc.h **** #endif
1176:N:/EECS 473/Myoelectric/myoelectric/Libraries/XMCLib/inc\xmc_vadc.h ****        };
1177:N:/EECS 473/Myoelectric/myoelectric/Libraries/XMCLib/inc\xmc_vadc.h ****        uint32_t g_emuxctr;
1178:N:/EECS 473/Myoelectric/myoelectric/Libraries/XMCLib/inc\xmc_vadc.h ****     };
1179:N:/EECS 473/Myoelectric/myoelectric/Libraries/XMCLib/inc\xmc_vadc.h **** } XMC_VADC_GROUP_EMUXCFG_t;
1180:N:/EECS 473/Myoelectric/myoelectric/Libraries/XMCLib/inc\xmc_vadc.h **** 
1181:N:/EECS 473/Myoelectric/myoelectric/Libraries/XMCLib/inc\xmc_vadc.h **** 
1182:N:/EECS 473/Myoelectric/myoelectric/Libraries/XMCLib/inc\xmc_vadc.h **** /**
1183:N:/EECS 473/Myoelectric/myoelectric/Libraries/XMCLib/inc\xmc_vadc.h ****  *   Group Configuration Data Structures
1184:N:/EECS 473/Myoelectric/myoelectric/Libraries/XMCLib/inc\xmc_vadc.h ****  */
1185:N:/EECS 473/Myoelectric/myoelectric/Libraries/XMCLib/inc\xmc_vadc.h **** 
1186:N:/EECS 473/Myoelectric/myoelectric/Libraries/XMCLib/inc\xmc_vadc.h **** typedef struct XMC_VADC_GROUP_CONFIG
1187:N:/EECS 473/Myoelectric/myoelectric/Libraries/XMCLib/inc\xmc_vadc.h **** {
1188:N:/EECS 473/Myoelectric/myoelectric/Libraries/XMCLib/inc\xmc_vadc.h ****     XMC_VADC_GROUP_EMUXCFG_t emux_config;    /**< External multiplexer related configurations */
1189:N:/EECS 473/Myoelectric/myoelectric/Libraries/XMCLib/inc\xmc_vadc.h ****     XMC_VADC_GROUP_CLASS_t class0;           /**< ADC input conversion configurations for GxICLASS[
1190:N:/EECS 473/Myoelectric/myoelectric/Libraries/XMCLib/inc\xmc_vadc.h ****     XMC_VADC_GROUP_CLASS_t class1;           /**< ADC input conversion configurations for GxICLASS[
1191:N:/EECS 473/Myoelectric/myoelectric/Libraries/XMCLib/inc\xmc_vadc.h ****     union
1192:N:/EECS 473/Myoelectric/myoelectric/Libraries/XMCLib/inc\xmc_vadc.h ****     {
1193:N:/EECS 473/Myoelectric/myoelectric/Libraries/XMCLib/inc\xmc_vadc.h ****        struct
1194:N:/EECS 473/Myoelectric/myoelectric/Libraries/XMCLib/inc\xmc_vadc.h ****        {
1195:N:/EECS 473/Myoelectric/myoelectric/Libraries/XMCLib/inc\xmc_vadc.h ****           uint32_t boundary0  : 12;  /**< Boundary value for results comparison*/
1196:N:/EECS 473/Myoelectric/myoelectric/Libraries/XMCLib/inc\xmc_vadc.h ****           uint32_t            : 4;
1197:N:/EECS 473/Myoelectric/myoelectric/Libraries/XMCLib/inc\xmc_vadc.h ****           uint32_t boundary1  : 12;  /**< Boundary value for results comparison*/
1198:N:/EECS 473/Myoelectric/myoelectric/Libraries/XMCLib/inc\xmc_vadc.h ****           uint32_t            : 4;
1199:N:/EECS 473/Myoelectric/myoelectric/Libraries/XMCLib/inc\xmc_vadc.h ****        };
1200:N:/EECS 473/Myoelectric/myoelectric/Libraries/XMCLib/inc\xmc_vadc.h ****        uint32_t g_bound;
